 iconv

 Timestamp is 5ec8c442 (Sat May 23 15:35:46 2020)

 Preferred load address is 0000000180000000

 Start         Length     Name                   Class
 0001:00000000 00022480H .text$mn                CODE
 0001:00022480 00000020H .text$mn$00             CODE
 0001:000224a0 000002e0H .text$x                 CODE
 0002:00000000 00000240H .idata$5                DATA
 0002:00000240 00000010H .00cfg                  DATA
 0002:00000250 00000008H .CRT$XCA                DATA
 0002:00000258 00000008H .CRT$XCU                DATA
 0002:00000260 00000008H .CRT$XCZ                DATA
 0002:00000268 00000008H .CRT$XIA                DATA
 0002:00000270 00000018H .CRT$XIC                DATA
 0002:00000288 00000008H .CRT$XIZ                DATA
 0002:00000290 00000008H .CRT$XPA                DATA
 0002:00000298 00000010H .CRT$XPX                DATA
 0002:000002a8 00000008H .CRT$XPXA               DATA
 0002:000002b0 00000008H .CRT$XPZ                DATA
 0002:000002b8 00000008H .CRT$XTA                DATA
 0002:000002c0 00000010H .CRT$XTZ                DATA
 0002:000002c8 00000000H .gfids$y                DATA
 0002:000002d0 000e44c0H .rdata                  DATA
 0002:000e4790 00000000H .rdata$r                DATA
 0002:000e4790 000003a0H .rdata$zzzdbg           DATA
 0002:000e4b30 00000008H .rtc$IAA                DATA
 0002:000e4b38 00000008H .rtc$IZZ                DATA
 0002:000e4b40 00000008H .rtc$TAA                DATA
 0002:000e4b48 00000008H .rtc$TZZ                DATA
 0002:000e4b50 000010e0H .xdata                  DATA
 0002:000e5c30 00000000H .xdata$x                DATA
 0002:000e5c30 00000020H .didat$2                DATA
 0002:000e5c50 00000020H .didat$3                DATA
 0002:000e5c70 00000078H .didat$4                DATA
 0002:000e5ce8 00000148H .didat$6                DATA
 0002:000e5e30 00000080H .didat$7                DATA
 0002:000e5eb0 00000054H .edata                  DATA
 0002:000e5f04 00000014H .idata$2                DATA
 0002:000e5f18 00000018H .idata$3                DATA
 0002:000e5f30 00000240H .idata$4                DATA
 0002:000e6170 0000053aH .idata$6                DATA
 0003:00000000 00000a38H .data                   DATA
 0003:00000a38 00000000H .data$r                 DATA
 0003:00000a38 00000078H .didat$5                DATA
 0003:00000ab0 000011e8H .bss                    DATA
 0004:00000000 000014d0H .pdata                  DATA
 0005:00000000 00000094H _RDATA                  DATA
 0006:00000000 00000060H .rsrc$01                DATA
 0006:00000060 00000180H .rsrc$02                DATA

  Address         Publics by Value              Rva+Base               Lib:Object

 0000:00000000       __hybrid_code_map_count    0000000000000000     <absolute>
 0000:00000000       __hybrid_code_map          0000000000000000     <absolute>
 0000:00000000       __guard_iat_count          0000000000000000     <absolute>
 0000:00000000       __volatile_metadata        0000000000000000     <absolute>
 0000:00000000       __guard_longjmp_count      0000000000000000     <absolute>
 0000:00000000       __guard_longjmp_table      0000000000000000     <absolute>
 0000:00000000       __guard_iat_table          0000000000000000     <absolute>
 0000:00000000       __guard_fids_count         0000000000000000     <absolute>
 0000:00000000       ___safe_se_handler_count   0000000000000000     <absolute>
 0000:00000000       __enclave_config           0000000000000000     <absolute>
 0000:00000000       __AbsoluteZero             0000000000000000     <absolute>
 0000:00000000       ___safe_se_handler_table   0000000000000000     <absolute>
 0000:00000000       __dynamic_value_reloc_table 0000000000000000     <absolute>
 0000:00000000       __guard_fids_table         0000000000000000     <absolute>
 0000:00000000       __hybrid_auxiliary_iat     0000000000000000     <absolute>
 0000:00000100       __guard_flags              0000000000000100     <absolute>
 0000:00000000       __ImageBase                0000000180000000     <linker-defined>
 0001:00000000       finalize                   0000000180001000 f   binding.obj
 0001:00000010       make                       0000000180001010 f   binding.obj
 0001:00000150       convert                    0000000180001150 f   binding.obj
 0001:000003f0       init                       00000001800013f0 f   binding.obj
 0001:00016c60       aliases_lookup             0000000180017c60 f   iconv.obj
 0001:00016df0       libiconv_open              0000000180017df0 f   iconv.obj
 0001:000171d4       __imp_load_napi_get_element 00000001800181d4 f   node:node.exe
 0001:000171e0       __tailMerge_node_exe       00000001800181e0     node:node.exe
 0001:00017259       __imp_load_napi_get_null   0000000180018259 f   node:node.exe
 0001:00017265       __imp_load_napi_set_element 0000000180018265 f   node:node.exe
 0001:00017271       __imp_load_napi_get_value_string_utf8 0000000180018271 f   node:node.exe
 0001:0001727d       __imp_load_napi_get_value_external 000000018001827d f   node:node.exe
 0001:00017289       __imp_load_napi_create_uint32 0000000180018289 f   node:node.exe
 0001:00017295       __imp_load_napi_create_int32 0000000180018295 f   node:node.exe
 0001:000172a1       __imp_load_napi_get_value_bool 00000001800182a1 f   node:node.exe
 0001:000172ad       __imp_load_napi_create_external 00000001800182ad f   node:node.exe
 0001:000172b9       __imp_load_napi_module_register 00000001800182b9 f   node:node.exe
 0001:000172c5       __imp_load_napi_define_properties 00000001800182c5 f   node:node.exe
 0001:000172d1       __imp_load_napi_get_value_uint32 00000001800182d1 f   node:node.exe
 0001:000172dd       __imp_load_napi_get_typedarray_info 00000001800182dd f   node:node.exe
 0001:000172e9       __imp_load_napi_get_cb_info 00000001800182e9 f   node:node.exe
 0001:00017310       __security_check_cookie    0000000180018310 f   LIBCMT:amdsecgs.obj
 0001:00017654       _DllMainCRTStartup         0000000180018654 f   LIBCMT:dll_dllmain.obj
 0001:00017694       __raise_securityfailure    0000000180018694 f   LIBCMT:gs_report.obj
 0001:000176c8       __report_gsfailure         00000001800186c8 f   LIBCMT:gs_report.obj
 0001:0001779c       __report_rangecheckfailure 000000018001879c f   LIBCMT:gs_report.obj
 0001:000177b0       __report_securityfailure   00000001800187b0 f   LIBCMT:gs_report.obj
 0001:00017930       __security_init_cookie     0000000180018930 f   LIBCMT:gs_support.obj
 0001:000179dc       DllMain                    00000001800189dc f   LIBCMT:dll_dllmain_stub.obj
 0001:000179dc       _get_startup_argv_mode     00000001800189dc f   LIBCMT:argv_mode.obj
 0001:000179e4       ?__scrt_initialize_type_info@@YAXXZ 00000001800189e4 f   LIBCMT:tncleanup.obj
 0001:000179f4       ?__scrt_uninitialize_type_info@@YAXXZ 00000001800189f4 f   LIBCMT:tncleanup.obj
 0001:00017a00       __local_stdio_printf_options 0000000180018a00 f i LIBCMT:default_local_stdio_options.obj
 0001:00017a08       __local_stdio_scanf_options 0000000180018a08 f i LIBCMT:default_local_stdio_options.obj
 0001:00017a10       __scrt_initialize_default_local_stdio_options 0000000180018a10 f   LIBCMT:default_local_stdio_options.obj
 0001:00017a2c       __scrt_acquire_startup_lock 0000000180018a2c f   LIBCMT:utility.obj
 0001:00017a68       __scrt_dllmain_after_initialize_c 0000000180018a68 f   LIBCMT:utility.obj
 0001:00017a9c       __scrt_dllmain_before_initialize_c 0000000180018a9c f   LIBCMT:utility.obj
 0001:00017ab4       __scrt_dllmain_crt_thread_attach 0000000180018ab4 f   LIBCMT:utility.obj
 0001:00017adc       __scrt_dllmain_crt_thread_detach 0000000180018adc f   LIBCMT:utility.obj
 0001:00017af4       __scrt_dllmain_exception_filter 0000000180018af4 f   LIBCMT:utility.obj
 0001:00017b54       __scrt_dllmain_uninitialize_c 0000000180018b54 f   LIBCMT:utility.obj
 0001:00017b84       __scrt_dllmain_uninitialize_critical 0000000180018b84 f   LIBCMT:utility.obj
 0001:00017b98       __scrt_initialize_crt      0000000180018b98 f   LIBCMT:utility.obj
 0001:00017be4       __scrt_initialize_onexit_tables 0000000180018be4 f   LIBCMT:utility.obj
 0001:00017c70       __scrt_is_nonwritable_in_current_image 0000000180018c70 f   LIBCMT:utility.obj
 0001:00017d08       __scrt_release_startup_lock 0000000180018d08 f   LIBCMT:utility.obj
 0001:00017d2c       __scrt_uninitialize_crt    0000000180018d2c f   LIBCMT:utility.obj
 0001:00017d58       __scrt_get_dyn_tls_init_callback 0000000180018d58 f   LIBCMT:dyn_tls_init.obj
 0001:00017d60       __crt_debugger_hook        0000000180018d60 f   LIBCMT:utility_desktop.obj
 0001:00017d68       __scrt_fastfail            0000000180018d68 f   LIBCMT:utility_desktop.obj
 0001:00017eb4       _RTC_Initialize            0000000180018eb4 f   LIBCMT:initsect.obj
 0001:00017ef0       _RTC_Terminate             0000000180018ef0 f   LIBCMT:initsect.obj
 0001:00017f2c       _guard_check_icall_nop     0000000180018f2c f i LIBCMT:guard_support.obj
 0001:00017f30       __isa_available_init       0000000180018f30 f   LIBCMT:cpu_disp.obj
 0001:000180d4       __scrt_is_ucrt_dll_in_use  00000001800190d4 f   LIBCMT:ucrt_detection.obj
 0001:000180e0       __C_specific_handler       00000001800190e0 f   libvcruntime:riscchandler.obj
 0001:000182ec       __std_type_info_destroy_list 00000001800192ec f   libvcruntime:std_type_info.obj
 0001:00018318       __vcrt_initialize          0000000180019318 f   libvcruntime:initialization.obj
 0001:00018340       __vcrt_thread_attach       0000000180019340 f   libvcruntime:initialization.obj
 0001:00018354       __vcrt_thread_detach       0000000180019354 f   libvcruntime:initialization.obj
 0001:00018368       __vcrt_uninitialize        0000000180019368 f   libvcruntime:initialization.obj
 0001:00018384       __vcrt_uninitialize_critical 0000000180019384 f   libvcruntime:initialization.obj
 0001:00018394       __DestructExceptionObject  0000000180019394 f   libvcruntime:ehhelpers.obj
 0001:00018404       ?_CallMemberFunction0@@YAXQEAX0@Z 0000000180019404 f i libvcruntime:ehhelpers.obj
 0001:00018420       memset_repmovs             0000000180019420 f   libvcruntime:memset.obj
 0001:00018440       memset                     0000000180019440 f   libvcruntime:memset.obj
 0001:000185e0       _NLG_Notify                00000001800195e0 f   libvcruntime:notify.obj
 0001:00018600       __NLG_Dispatch2            0000000180019600 f   libvcruntime:notify.obj
 0001:00018610       __NLG_Return2              0000000180019610 f   libvcruntime:notify.obj
 0001:00018614       __except_validate_context_record 0000000180019614 f   libvcruntime:jbcxrval.obj
 0001:0001864c       __vcrt_freefls             000000018001964c f   libvcruntime:per_thread_data.obj
 0001:0001866c       __vcrt_freeptd             000000018001966c f   libvcruntime:per_thread_data.obj
 0001:000186bc       __vcrt_getptd              00000001800196bc f   libvcruntime:per_thread_data.obj
 0001:000186d8       __vcrt_getptd_noexit       00000001800196d8 f   libvcruntime:per_thread_data.obj
 0001:00018798       __vcrt_initialize_ptd      0000000180019798 f   libvcruntime:per_thread_data.obj
 0001:000187e0       __vcrt_uninitialize_ptd    00000001800197e0 f   libvcruntime:per_thread_data.obj
 0001:00018804       __vcrt_initialize_locks    0000000180019804 f   libvcruntime:locks.obj
 0001:00018838       __vcrt_uninitialize_locks  0000000180019838 f   libvcruntime:locks.obj
 0001:00018880       memcpy_repmovs             0000000180019880 f   libvcruntime:memcpy.obj
 0001:000188a0       memcpy                     00000001800198a0 f   libvcruntime:memcpy.obj
 0001:000188a0       memmove                    00000001800198a0 f   libvcruntime:memcpy.obj
 0001:00018dd4       __vcrt_FlsAlloc            0000000180019dd4 f   libvcruntime:winapi_downlevel.obj
 0001:00018e1c       __vcrt_FlsFree             0000000180019e1c f   libvcruntime:winapi_downlevel.obj
 0001:00018e64       __vcrt_FlsGetValue         0000000180019e64 f   libvcruntime:winapi_downlevel.obj
 0001:00018eac       __vcrt_FlsSetValue         0000000180019eac f   libvcruntime:winapi_downlevel.obj
 0001:00018f00       __vcrt_InitializeCriticalSectionEx 0000000180019f00 f   libvcruntime:winapi_downlevel.obj
 0001:00018f80       _CallSettingFrame          0000000180019f80 f   libvcruntime:handlers.obj
 0001:00018fd0       _CallSettingFrame_LookupContinuationIndex 0000000180019fd0 f   libvcruntime:handlers.obj
 0001:00019000       _CallSettingFrame_NotifyContinuationAddr 000000018001a000 f   libvcruntime:handlers.obj
 0001:00019030       _CallSettingFrameEncoded   000000018001a030 f   libvcruntime:handlers.obj
 0001:00019078       abort                      000000018001a078 f   libucrt:abort.obj
 0001:000190d0       __acrt_errno_from_os_error 000000018001a0d0 f   libucrt:errno.obj
 0001:00019118       __acrt_errno_map_os_error  000000018001a118 f   libucrt:errno.obj
 0001:00019168       __doserrno                 000000018001a168 f   libucrt:errno.obj
 0001:00019188       _errno                     000000018001a188 f   libucrt:errno.obj
 0001:000191b0       qsort                      000000018001a1b0 f   libucrt:qsort.obj
 0001:00019560       free                       000000018001a560 f   libucrt:free.obj
 0001:00019574       malloc                     000000018001a574 f   libucrt:malloc.obj
 0001:0001957c       ??0_LocaleUpdate@@QEAA@QEAU__crt_locale_pointers@@@Z 000000018001a57c f i libucrt:stricmp.obj
 0001:00019618       __ascii_stricmp            000000018001a618 f   libucrt:stricmp.obj
 0001:00019654       _stricmp                   000000018001a654 f   libucrt:stricmp.obj
 0001:0001969c       _stricmp_l                 000000018001a69c f   libucrt:stricmp.obj
 0001:00019724       _initterm                  000000018001a724 f   libucrt:initterm.obj
 0001:00019788       _initterm_e                000000018001a788 f   libucrt:initterm.obj
 0001:000197c8       _seh_filter_dll            000000018001a7c8 f   libucrt:exception_filter.obj
 0001:000197dc       _seh_filter_exe            000000018001a7dc f   libucrt:exception_filter.obj
 0001:00019bcc       __acrt_initialize_thread_local_exit_callback 000000018001abcc f   libucrt:exit.obj
 0001:00019bd4       _cexit                     000000018001abd4 f   libucrt:exit.obj
 0001:00019be4       _exit                      000000018001abe4 f   libucrt:exit.obj
 0001:00019bf0       _is_c_termination_complete 000000018001abf0 f   libucrt:exit.obj
 0001:00019dbc       __acrt_allocate_buffer_for_argv 000000018001adbc f   libucrt:argv_parsing.obj
 0001:00019e1c       _configure_narrow_argv     000000018001ae1c f   libucrt:argv_parsing.obj
 0001:0001a194       __dcrt_uninitialize_environments_nolock 000000018001b194 f   libucrt:environment_initialization.obj
 0001:0001a1cc       _initialize_narrow_environment 000000018001b1cc f   libucrt:environment_initialization.obj
 0001:0001a328       _execute_onexit_table      000000018001b328 f   libucrt:onexit.obj
 0001:0001a364       _initialize_onexit_table   000000018001b364 f   libucrt:onexit.obj
 0001:0001a3c4       __acrt_uninitialize_command_line 000000018001b3c4 f   libucrt:argv_data.obj
 0001:0001a4bc       __acrt_initialize          000000018001b4bc f   libucrt:initialization.obj
 0001:0001a4d0       __acrt_thread_attach       000000018001b4d0 f   libucrt:initialization.obj
 0001:0001a4e4       __acrt_thread_detach       000000018001b4e4 f   libucrt:initialization.obj
 0001:0001a4f4       __acrt_uninitialize        000000018001b4f4 f   libucrt:initialization.obj
 0001:0001a52c       __acrt_uninitialize_critical 000000018001b52c f   libucrt:initialization.obj
 0001:0001a53c       terminate                  000000018001b53c f   libucrt:terminate.obj
 0001:0001a55c       strcpy_s                   000000018001b55c f   libucrt:strcpy_s.obj
 0001:0001a5d0       strncmp                    000000018001b5d0 f   libucrt:strncmp.obj
 0001:0001a650       calloc                     000000018001b650 f   libucrt:calloc.obj
 0001:0001a658       wcsncmp                    000000018001b658 f   libucrt:wcsncmp.obj
 0001:0001a684       __acrt_call_reportfault    000000018001b684 f   libucrt:invalid_parameter.obj
 0001:0001a7e0       __acrt_initialize_invalid_parameter_handler 000000018001b7e0 f   libucrt:invalid_parameter.obj
 0001:0001a7e8       _invalid_parameter         000000018001b7e8 f   libucrt:invalid_parameter.obj
 0001:0001a898       _invalid_parameter_noinfo  000000018001b898 f   libucrt:invalid_parameter.obj
 0001:0001a8b8       _invoke_watson             000000018001b8b8 f   libucrt:invalid_parameter.obj
 0001:0001a948       __acrt_get_sigabrt_handler 000000018001b948 f   libucrt:signal.obj
 0001:0001a978       __acrt_initialize_signal_handlers 000000018001b978 f   libucrt:signal.obj
 0001:0001a998       raise                      000000018001b998 f   libucrt:signal.obj
 0001:0001af7c       __acrt_freeptd             000000018001bf7c f   libucrt:per_thread_data.obj
 0001:0001afc0       __acrt_getptd              000000018001bfc0 f   libucrt:per_thread_data.obj
 0001:0001b094       __acrt_getptd_head         000000018001c094 f   libucrt:per_thread_data.obj
 0001:0001b13c       __acrt_getptd_noexit       000000018001c13c f   libucrt:per_thread_data.obj
 0001:0001b208       __acrt_initialize_ptd      000000018001c208 f   libucrt:per_thread_data.obj
 0001:0001b244       __acrt_uninitialize_ptd    000000018001c244 f   libucrt:per_thread_data.obj
 0001:0001b268       _free_base                 000000018001c268 f   libucrt:free_base.obj
 0001:0001b2a8       _malloc_base               000000018001c2a8 f   libucrt:malloc_base.obj
 0001:0001b308       __acrt_update_locale_info  000000018001c308 f   libucrt:locale_update.obj
 0001:0001b33c       __acrt_update_multibyte_info 000000018001c33c f   libucrt:locale_update.obj
 0001:0001b3e0       __acrt_set_locale_changed  000000018001c3e0 f   libucrt:wsetlocale.obj
 0001:0001b3ec       __acrt_uninitialize_locale 000000018001c3ec f   libucrt:wsetlocale.obj
 0001:0001b41c       __acrt_initialize_locks    000000018001c41c f   libucrt:locks.obj
 0001:0001b464       __acrt_lock                000000018001c464 f   libucrt:locks.obj
 0001:0001b480       __acrt_uninitialize_locks  000000018001c480 f   libucrt:locks.obj
 0001:0001b4b8       __acrt_unlock              000000018001c4b8 f   libucrt:locks.obj
 0001:0001b4d4       __acrt_get_process_end_policy 000000018001c4d4 f   libucrt:win_policies.obj
 0001:0001b510       _calloc_base               000000018001c510 f   libucrt:calloc_base.obj
 0001:0001b59c       ??$__acrt_mbs_to_wcs_cp@U__crt_win32_buffer_internal_dynamic_resizing@@@@YAHQEBDAEAV?$__crt_win32_buffer@_WU__crt_win32_buffer_internal_dynamic_resizing@@@@I@Z 000000018001c59c f i libucrt:argv_wildcards.obj
 0001:0001b714       ??$__acrt_wcs_to_mbs_cp@U__crt_win32_buffer_internal_dynamic_resizing@@@@YAHQEB_WAEAV?$__crt_win32_buffer@DU__crt_win32_buffer_internal_dynamic_resizing@@@@I@Z 000000018001c714 f i libucrt:argv_wildcards.obj
 0001:0001bf44       __acrt_expand_narrow_argv_wildcards 000000018001cf44 f   libucrt:argv_wildcards.obj
 0001:0001bf4c       ??$__acrt_wcs_to_mbs_cp@U__crt_win32_buffer_no_resizing@@@@YAHQEB_WAEAV?$__crt_win32_buffer@DU__crt_win32_buffer_no_resizing@@@@I@Z 000000018001cf4c f i libucrt:getmodulefilenamea.obj
 0001:0001c060       __acrt_GetModuleFileNameA  000000018001d060 f   libucrt:getmodulefilenamea.obj
 0001:0001c8ac       __acrt_initialize_multibyte 000000018001d8ac f   libucrt:mbctype.obj
 0001:0001c90c       __acrt_update_thread_multibyte_data 000000018001d90c f   libucrt:mbctype.obj
 0001:0001c928       _setmbcp_nolock            000000018001d928 f   libucrt:mbctype.obj
 0001:0001cc5c       _ismbblead                 000000018001dc5c f   libucrt:ismbbyte.obj
 0001:0001cc70       __acrt_initialize_command_line 000000018001dc70 f   libucrt:argv_data.obj
 0001:0001cc98       __acrt_MultiByteToWideChar 000000018001dc98 f   libucrt:multibytetowidechar.obj
 0001:0001ccf4       __acrt_WideCharToMultiByte 000000018001dcf4 f   libucrt:widechartomultibyte.obj
 0001:0001cd8c       __dcrt_get_narrow_environment_from_os 000000018001dd8c f   libucrt:get_environment_from_os.obj
 0001:0001ce90       _recalloc_base             000000018001de90 f   libucrt:recalloc.obj
 0001:0001d100       __acrt_AppPolicyGetProcessTerminationMethodInternal 000000018001e100 f   libucrt:winapi_thunks.obj
 0001:0001d150       __acrt_AreFileApisANSI     000000018001e150 f   libucrt:winapi_thunks.obj
 0001:0001d18c       __acrt_FlsAlloc            000000018001e18c f   libucrt:winapi_thunks.obj
 0001:0001d1d4       __acrt_FlsFree             000000018001e1d4 f   libucrt:winapi_thunks.obj
 0001:0001d21c       __acrt_FlsGetValue         000000018001e21c f   libucrt:winapi_thunks.obj
 0001:0001d264       __acrt_FlsSetValue         000000018001e264 f   libucrt:winapi_thunks.obj
 0001:0001d2b8       __acrt_InitializeCriticalSectionEx 000000018001e2b8 f   libucrt:winapi_thunks.obj
 0001:0001d31c       __acrt_LCMapStringEx       000000018001e31c f   libucrt:winapi_thunks.obj
 0001:0001d3f8       __acrt_LocaleNameToLCID    000000018001e3f8 f   libucrt:winapi_thunks.obj
 0001:0001d448       __acrt_initialize_winapi_thunks 000000018001e448 f   libucrt:winapi_thunks.obj
 0001:0001d47c       __acrt_uninitialize_winapi_thunks 000000018001e47c f   libucrt:winapi_thunks.obj
 0001:0001d4c0       __acrt_initialize_heap     000000018001e4c0 f   libucrt:heap_handle.obj
 0001:0001d4dc       __acrt_uninitialize_heap   000000018001e4dc f   libucrt:heap_handle.obj
 0001:0001d6e4       __acrt_initialize_lowio    000000018001e6e4 f   libucrt:ioinit.obj
 0001:0001d720       __acrt_uninitialize_lowio  000000018001e720 f   libucrt:ioinit.obj
 0001:0001d760       __acrt_execute_initializers 000000018001e760 f   libucrt:shared_initialization.obj
 0001:0001d7e0       __acrt_execute_uninitializers 000000018001e7e0 f   libucrt:shared_initialization.obj
 0001:0001d81c       __acrt_initialize_new_handler 000000018001e81c f   libucrt:new_handler.obj
 0001:0001d824       _callnewh                  000000018001e824 f   libucrt:new_handler.obj
 0001:0001d854       _query_new_handler         000000018001e854 f   libucrt:new_handler.obj
 0001:0001d888       __acrt_has_user_matherr    000000018001e888 f   libucrt:matherr.obj
 0001:0001d8a8       __acrt_initialize_user_matherr 000000018001e8a8 f   libucrt:matherr.obj
 0001:0001d8b0       __acrt_invoke_user_matherr 000000018001e8b0 f   libucrt:matherr.obj
 0001:0001dabc       __acrt_stdio_flush_nolock  000000018001eabc f   libucrt:fflush.obj
 0001:0001db38       _fflush_nolock             000000018001eb38 f   libucrt:fflush.obj
 0001:0001db84       _flushall                  000000018001eb84 f   libucrt:fflush.obj
 0001:0001db8c       __acrt_initialize_stdio    000000018001eb8c f   libucrt:_file.obj
 0001:0001dcac       __acrt_uninitialize_stdio  000000018001ecac f   libucrt:_file.obj
 0001:0001dd08       _lock_file                 000000018001ed08 f   libucrt:_file.obj
 0001:0001dd14       _unlock_file               000000018001ed14 f   libucrt:_file.obj
 0001:0001dd20       _mbtowc_l                  000000018001ed20 f   libucrt:mbtowc.obj
 0001:0001dea0       mbtowc                     000000018001eea0 f   libucrt:mbtowc.obj
 0001:0001dea8       _fileno                    000000018001eea8 f   libucrt:fileno.obj
 0001:0001ded0       __pctype_func              000000018001eed0 f   libucrt:ctype.obj
 0001:0001df00       __acrt_add_locale_ref      000000018001ef00 f   libucrt:locale_refcounting.obj
 0001:0001df8c       __acrt_free_locale         000000018001ef8c f   libucrt:locale_refcounting.obj
 0001:0001e104       __acrt_locale_add_lc_time_reference 000000018001f104 f   libucrt:locale_refcounting.obj
 0001:0001e12c       __acrt_locale_free_lc_time_if_unreferenced 000000018001f12c f   libucrt:locale_refcounting.obj
 0001:0001e164       __acrt_locale_release_lc_time_reference 000000018001f164 f   libucrt:locale_refcounting.obj
 0001:0001e18c       __acrt_release_locale_ref  000000018001f18c f   libucrt:locale_refcounting.obj
 0001:0001e234       __acrt_update_thread_locale_data 000000018001f234 f   libucrt:locale_refcounting.obj
 0001:0001e2a0       _updatetlocinfoEx_nolock   000000018001f2a0 f   libucrt:locale_refcounting.obj
 0001:0001e308       _query_new_mode            000000018001f308 f   libucrt:new_mode.obj
 0001:0001e310       __acrt_locale_free_monetary 000000018001f310 f   libucrt:initmon.obj
 0001:0001e41c       __acrt_locale_free_numeric 000000018001f41c f   libucrt:initnum.obj
 0001:0001e4e0       __acrt_locale_free_time    000000018001f4e0 f   libucrt:inittime.obj
 0001:0001e5e8       __acrt_GetStringTypeA      000000018001f5e8 f   libucrt:getstringtypea.obj
 0001:0001e778       strncpy_s                  000000018001f778 f   libucrt:strncpy_s.obj
 0001:0001e8f0       strpbrk                    000000018001f8f0 f   libucrt:strpbrk.obj
 0001:0001ecd0       _mbsdec                    000000018001fcd0 f   libucrt:mbsdec.obj
 0001:0001ecd8       _mbsdec_l                  000000018001fcd8 f   libucrt:mbsdec.obj
 0001:0001f084       __acrt_LCMapStringA        0000000180020084 f   libucrt:lcmapstringa.obj
 0001:0001f134       _msize_base                0000000180020134 f   libucrt:msize.obj
 0001:0001f170       _realloc_base              0000000180020170 f   libucrt:realloc_base.obj
 0001:0001f1ec       __acrt_DownlevelLocaleNameToLCID 00000001800201ec f   libucrt:lcidtoname_downlevel.obj
 0001:0001f29c       __acrt_lowio_create_handle_array 000000018002029c f   libucrt:osfinfo.obj
 0001:0001f344       __acrt_lowio_destroy_handle_array 0000000180020344 f   libucrt:osfinfo.obj
 0001:0001f394       __acrt_lowio_ensure_fh_exists 0000000180020394 f   libucrt:osfinfo.obj
 0001:0001f43c       __acrt_lowio_lock_fh       000000018002043c f   libucrt:osfinfo.obj
 0001:0001f464       __acrt_lowio_unlock_fh     0000000180020464 f   libucrt:osfinfo.obj
 0001:0001f48c       _free_osfhnd               000000018002048c f   libucrt:osfinfo.obj
 0001:0001f548       _get_osfhandle             0000000180020548 f   libucrt:osfinfo.obj
 0001:0001f64c       _commit                    000000018002064c f   libucrt:commit.obj
 0001:0001ff40       _write                     0000000180020f40 f   libucrt:write.obj
 0001:0002002c       _write_nolock              000000018002102c f   libucrt:write.obj
 0001:00020308       _fcloseall                 0000000180021308 f   libucrt:closeall.obj
 0001:000203bc       __acrt_stdio_free_buffer_nolock 00000001800213bc f   libucrt:_freebuf.obj
 0001:000203fc       _isatty                    00000001800213fc f   libucrt:isatty.obj
 0001:0002045c       _isleadbyte_l              000000018002145c f i libucrt:_wctype.obj
 0001:000204a8       ?__mbrtowc_utf8@__crt_mbstring@@YA_KPEA_WPEBD_KPEAU_Mbstatet@@@Z 00000001800214a8 f   libucrt:mbrtowc.obj
 0001:000204e4       ?__mbsrtowcs_utf8@__crt_mbstring@@YA_KPEA_WPEAPEBD_KPEAU_Mbstatet@@@Z 00000001800214e4 f   libucrt:mbrtowc.obj
 0001:0002065c       __ascii_wcsnicmp           000000018002165c f   libucrt:wcsnicmp.obj
 0001:000206a8       __strncnt                  00000001800216a8 f   libucrt:strncnt.obj
 0001:000206c0       _query_app_type            00000001800216c0 f   libucrt:report_runtime_error.obj
 0001:00020764       _lseeki64_nolock           0000000180021764 f   libucrt:lseek.obj
 0001:0002076c       _putwch_nolock             000000018002176c f   libucrt:putwch.obj
 0001:000207a8       _fclose_nolock             00000001800217a8 f   libucrt:fclose.obj
 0001:0002082c       fclose                     000000018002182c f   libucrt:fclose.obj
 0001:00020890       ?__mbrtoc32_utf8@__crt_mbstring@@YA_KPEA_UPEBD_KPEAU_Mbstatet@@@Z 0000000180021890 f   libucrt:mbrtoc32.obj
 0001:00020a70       log10                      0000000180021a70 f   libucrt:log10.obj
 0001:0002101c       __dcrt_lowio_ensure_console_output_initialized 000000018002201c f   libucrt:initcon.obj
 0001:00021070       __dcrt_terminate_console_output 0000000180022070 f   libucrt:initcon.obj
 0001:0002108c       __dcrt_write_console       000000018002208c f   libucrt:initcon.obj
 0001:000211c0       _close                     00000001800221c0 f   libucrt:close.obj
 0001:00021264       _close_nolock              0000000180022264 f   libucrt:close.obj
 0001:00021324       ?__acrt_stdio_free_stream@@YAXV__crt_stdio_stream@@@Z 0000000180022324 f   libucrt:stream.obj
 0001:00021464       _handle_error              0000000180022464 f   libucrt:libm_error.obj
 0001:00021590       __acrt_initialize_fma3     0000000180022590 f   libucrt:fma3_available.obj
 0001:00021600       _log10_special             0000000180022600 f   libucrt:log_special.obj
 0001:000216d0       _get_fpsr                  00000001800226d0 f   libucrt:fpsr.obj
 0001:000216e0       _set_fpsr                  00000001800226e0 f   libucrt:fpsr.obj
 0001:000216ea       _fclrf                     00000001800226ea f   libucrt:fpsr.obj
 0001:000216fe       _frnd                      00000001800226fe f   libucrt:fpsr.obj
 0001:00021720       _raise_exc                 0000000180022720 f   libucrt:fpexcept.obj
 0001:00021748       _raise_exc_ex              0000000180022748 f   libucrt:fpexcept.obj
 0001:00021a58       _set_errno_from_matherr    0000000180022a58 f   libucrt:fpexcept.obj
 0001:00021a88       _clrfp                     0000000180022a88 f   libucrt:fpctrl.obj
 0001:00021aa8       _ctrlfp                    0000000180022aa8 f   libucrt:fpctrl.obj
 0001:00021b24       _set_statfp                0000000180022b24 f   libucrt:fpctrl.obj
 0001:00021b44       _statfp                    0000000180022b44 f   libucrt:fpctrl.obj
 0001:00021b55       IsProcessorFeaturePresent  0000000180022b55 f   kernel32:KERNEL32.dll
 0001:00021b5c       ?DloadAcquireSectionWriteAccess@@YAXXZ 0000000180022b5c f i DelayImp:delayhlp.obj
 0001:00021c08       ?DloadGetSRWLockFunctionPointers@@YAEXZ 0000000180022c08 f i DelayImp:delayhlp.obj
 0001:00021ca4       ?DloadMakePermanentImageCommit@@YAXPEAX_K@Z 0000000180022ca4 f i DelayImp:delayhlp.obj
 0001:00021d3c       ?DloadObtainSection@@YAPEAXPEAK0@Z 0000000180022d3c f i DelayImp:delayhlp.obj
 0001:00021dd8       ?DloadProtectSection@@YAXKPEAK@Z 0000000180022dd8 f i DelayImp:delayhlp.obj
 0001:00021e68       ?DloadReleaseSectionWriteAccess@@YAXXZ 0000000180022e68 f i DelayImp:delayhlp.obj
 0001:00021efc       __delayLoadHelper2         0000000180022efc f   DelayImp:delayhlp.obj
 0001:000221e0       _FindPESection             00000001800231e0 f   LIBCMT:pesect.obj
 0001:00022230       _IsNonwritableInCurrentImage 0000000180023230 f   LIBCMT:pesect.obj
 0001:00022280       _ValidateImageBase         0000000180023280 f   LIBCMT:pesect.obj
 0001:000222b0       __GSHandlerCheck           00000001800232b0 f   LIBCMT:gshandler.obj
 0001:000222d0       __GSHandlerCheckCommon     00000001800232d0 f   LIBCMT:gshandler.obj
 0001:00022340       __chkstk                   0000000180023340 f   LIBCMT:chkstk.obj
 0001:00022340       _alloca_probe              0000000180023340 f   LIBCMT:chkstk.obj
 0001:000223b0       memcmp                     00000001800233b0 f   libvcruntime:memcmp.obj
 0001:00022490       _guard_dispatch_icall_nop  0000000180023490 f   LIBCMT:guard_dispatch.obj
 0002:00000000       __imp_GetModuleHandleA     0000000180024000     kernel32:KERNEL32.dll
 0002:00000008       __imp_LoadLibraryExA       0000000180024008     kernel32:KERNEL32.dll
 0002:00000010       __imp_RtlCaptureContext    0000000180024010     kernel32:KERNEL32.dll
 0002:00000018       __imp_RtlLookupFunctionEntry 0000000180024018     kernel32:KERNEL32.dll
 0002:00000020       __imp_RtlVirtualUnwind     0000000180024020     kernel32:KERNEL32.dll
 0002:00000028       __imp_UnhandledExceptionFilter 0000000180024028     kernel32:KERNEL32.dll
 0002:00000030       __imp_SetUnhandledExceptionFilter 0000000180024030     kernel32:KERNEL32.dll
 0002:00000038       __imp_GetCurrentProcess    0000000180024038     kernel32:KERNEL32.dll
 0002:00000040       __imp_TerminateProcess     0000000180024040     kernel32:KERNEL32.dll
 0002:00000048       __imp_IsProcessorFeaturePresent 0000000180024048     kernel32:KERNEL32.dll
 0002:00000050       __imp_QueryPerformanceCounter 0000000180024050     kernel32:KERNEL32.dll
 0002:00000058       __imp_GetCurrentProcessId  0000000180024058     kernel32:KERNEL32.dll
 0002:00000060       __imp_GetCurrentThreadId   0000000180024060     kernel32:KERNEL32.dll
 0002:00000068       __imp_GetSystemTimeAsFileTime 0000000180024068     kernel32:KERNEL32.dll
 0002:00000070       __imp_InitializeSListHead  0000000180024070     kernel32:KERNEL32.dll
 0002:00000078       __imp_IsDebuggerPresent    0000000180024078     kernel32:KERNEL32.dll
 0002:00000080       __imp_GetStartupInfoW      0000000180024080     kernel32:KERNEL32.dll
 0002:00000088       __imp_GetModuleHandleW     0000000180024088     kernel32:KERNEL32.dll
 0002:00000090       __imp_RtlUnwindEx          0000000180024090     kernel32:KERNEL32.dll
 0002:00000098       __imp_InterlockedFlushSList 0000000180024098     kernel32:KERNEL32.dll
 0002:000000a0       __imp_GetLastError         00000001800240a0     kernel32:KERNEL32.dll
 0002:000000a8       __imp_SetLastError         00000001800240a8     kernel32:KERNEL32.dll
 0002:000000b0       __imp_EnterCriticalSection 00000001800240b0     kernel32:KERNEL32.dll
 0002:000000b8       __imp_LeaveCriticalSection 00000001800240b8     kernel32:KERNEL32.dll
 0002:000000c0       __imp_DeleteCriticalSection 00000001800240c0     kernel32:KERNEL32.dll
 0002:000000c8       __imp_InitializeCriticalSectionAndSpinCount 00000001800240c8     kernel32:KERNEL32.dll
 0002:000000d0       __imp_TlsAlloc             00000001800240d0     kernel32:KERNEL32.dll
 0002:000000d8       __imp_TlsGetValue          00000001800240d8     kernel32:KERNEL32.dll
 0002:000000e0       __imp_TlsSetValue          00000001800240e0     kernel32:KERNEL32.dll
 0002:000000e8       __imp_TlsFree              00000001800240e8     kernel32:KERNEL32.dll
 0002:000000f0       __imp_FreeLibrary          00000001800240f0     kernel32:KERNEL32.dll
 0002:000000f8       __imp_GetProcAddress       00000001800240f8     kernel32:KERNEL32.dll
 0002:00000100       __imp_LoadLibraryExW       0000000180024100     kernel32:KERNEL32.dll
 0002:00000108       __imp_RaiseException       0000000180024108     kernel32:KERNEL32.dll
 0002:00000110       __imp_ExitProcess          0000000180024110     kernel32:KERNEL32.dll
 0002:00000118       __imp_GetModuleHandleExW   0000000180024118     kernel32:KERNEL32.dll
 0002:00000120       __imp_GetModuleFileNameW   0000000180024120     kernel32:KERNEL32.dll
 0002:00000128       __imp_HeapFree             0000000180024128     kernel32:KERNEL32.dll
 0002:00000130       __imp_HeapAlloc            0000000180024130     kernel32:KERNEL32.dll
 0002:00000138       __imp_FindClose            0000000180024138     kernel32:KERNEL32.dll
 0002:00000140       __imp_FindFirstFileExW     0000000180024140     kernel32:KERNEL32.dll
 0002:00000148       __imp_FindNextFileW        0000000180024148     kernel32:KERNEL32.dll
 0002:00000150       __imp_IsValidCodePage      0000000180024150     kernel32:KERNEL32.dll
 0002:00000158       __imp_GetACP               0000000180024158     kernel32:KERNEL32.dll
 0002:00000160       __imp_GetOEMCP             0000000180024160     kernel32:KERNEL32.dll
 0002:00000168       __imp_GetCPInfo            0000000180024168     kernel32:KERNEL32.dll
 0002:00000170       __imp_GetCommandLineA      0000000180024170     kernel32:KERNEL32.dll
 0002:00000178       __imp_GetCommandLineW      0000000180024178     kernel32:KERNEL32.dll
 0002:00000180       __imp_MultiByteToWideChar  0000000180024180     kernel32:KERNEL32.dll
 0002:00000188       __imp_WideCharToMultiByte  0000000180024188     kernel32:KERNEL32.dll
 0002:00000190       __imp_GetEnvironmentStringsW 0000000180024190     kernel32:KERNEL32.dll
 0002:00000198       __imp_FreeEnvironmentStringsW 0000000180024198     kernel32:KERNEL32.dll
 0002:000001a0       __imp_LCMapStringW         00000001800241a0     kernel32:KERNEL32.dll
 0002:000001a8       __imp_GetProcessHeap       00000001800241a8     kernel32:KERNEL32.dll
 0002:000001b0       __imp_GetStdHandle         00000001800241b0     kernel32:KERNEL32.dll
 0002:000001b8       __imp_GetFileType          00000001800241b8     kernel32:KERNEL32.dll
 0002:000001c0       __imp_GetStringTypeW       00000001800241c0     kernel32:KERNEL32.dll
 0002:000001c8       __imp_HeapSize             00000001800241c8     kernel32:KERNEL32.dll
 0002:000001d0       __imp_HeapReAlloc          00000001800241d0     kernel32:KERNEL32.dll
 0002:000001d8       __imp_SetStdHandle         00000001800241d8     kernel32:KERNEL32.dll
 0002:000001e0       __imp_FlushFileBuffers     00000001800241e0     kernel32:KERNEL32.dll
 0002:000001e8       __imp_WriteFile            00000001800241e8     kernel32:KERNEL32.dll
 0002:000001f0       __imp_GetConsoleCP         00000001800241f0     kernel32:KERNEL32.dll
 0002:000001f8       __imp_GetConsoleMode       00000001800241f8     kernel32:KERNEL32.dll
 0002:00000200       __imp_SetFilePointerEx     0000000180024200     kernel32:KERNEL32.dll
 0002:00000208       __imp_CreateFileW          0000000180024208     kernel32:KERNEL32.dll
 0002:00000210       __imp_CloseHandle          0000000180024210     kernel32:KERNEL32.dll
 0002:00000218       __imp_WriteConsoleW        0000000180024218     kernel32:KERNEL32.dll
 0002:00000220       __imp_GetSystemInfo        0000000180024220     kernel32:KERNEL32.dll
 0002:00000228       __imp_VirtualProtect       0000000180024228     kernel32:KERNEL32.dll
 0002:00000230       __imp_VirtualQuery         0000000180024230     kernel32:KERNEL32.dll
 0002:00000238       \177KERNEL32_NULL_THUNK_DATA 0000000180024238     kernel32:KERNEL32.dll
 0002:00000240       __guard_check_icall_fptr   0000000180024240     LIBCMT:guard_support.obj
 0002:00000248       __guard_dispatch_icall_fptr 0000000180024248     LIBCMT:guard_support.obj
 0002:00000250       __xc_a                     0000000180024250     LIBCMT:initializers.obj
 0002:00000258       _register_libiconv_        0000000180024258     binding.obj
 0002:00000260       __xc_z                     0000000180024260     LIBCMT:initializers.obj
 0002:00000268       __xi_a                     0000000180024268     LIBCMT:initializers.obj
 0002:00000270       __acrt_multibyte_initializer 0000000180024270     libucrt:multibyte_initializer.obj
 0002:00000278       __acrt_stdio_initializer   0000000180024278     libucrt:stdio_initializer.obj
 0002:00000280       __acrt_tran_fma3_initializer 0000000180024280     libucrt:fma3_initializer.obj
 0002:00000288       __xi_z                     0000000180024288     LIBCMT:initializers.obj
 0002:00000290       __xp_a                     0000000180024290     LIBCMT:initializers.obj
 0002:00000298       __acrt_locale_terminator   0000000180024298     libucrt:locale_initializer.obj
 0002:000002a0       __dcrt_console_output_terminator 00000001800242a0     libucrt:console_output_initializer.obj
 0002:000002a8       __acrt_stdio_terminator    00000001800242a8     libucrt:stdio_initializer.obj
 0002:000002b0       __xp_z                     00000001800242b0     LIBCMT:initializers.obj
 0002:000002b8       __xt_a                     00000001800242b8     LIBCMT:initializers.obj
 0002:000002c0       __xt_z                     00000001800242c0     LIBCMT:initializers.obj
 0002:000002d0       __sz_node_exe              00000001800242d0     node:node.exe
 0002:000002e0       _pDefaultRawDllMain        00000001800242e0     LIBCMT:dll_dllmain.obj
 0002:000002e0       _pRawDllMain               00000001800242e0     LIBCMT:dll_dllmain.obj
 0002:00000300       __xmm@ffffffffffffffffffffffffffffffff 0000000180024300     LIBCMT:utility.obj
 0002:00000310       _pDestructExceptionObject  0000000180024310     libvcruntime:ehhelpers.obj
 0002:00000a20       ??_C@_08EHJDFFNH@__based?$CI@ 0000000180024a20     libvcruntime:undname.obj
 0002:00000a30       ??_C@_07KOLFKCDI@__cdecl@  0000000180024a30     libvcruntime:undname.obj
 0002:00000a38       ??_C@_08GHMPAG@__pascal@   0000000180024a38     libvcruntime:undname.obj
 0002:00000a48       ??_C@_09IFJBGAPI@__stdcall@ 0000000180024a48     libvcruntime:undname.obj
 0002:00000a58       ??_C@_0L@NPHFGOKO@__thiscall@ 0000000180024a58     libvcruntime:undname.obj
 0002:00000a68       ??_C@_0L@JMKHOMEK@__fastcall@ 0000000180024a68     libvcruntime:undname.obj
 0002:00000a78       ??_C@_0N@BCKKPABJ@__vectorcall@ 0000000180024a78     libvcruntime:undname.obj
 0002:00000a88       ??_C@_09HIJEGCPM@__clrcall@ 0000000180024a88     libvcruntime:undname.obj
 0002:00000a94       ??_C@_06GHPCKEAG@__eabi@   0000000180024a94     libvcruntime:undname.obj
 0002:00000aa0       ??_C@_09IOPIDJLG@__swift_1@ 0000000180024aa0     libvcruntime:undname.obj
 0002:00000ab0       ??_C@_09KFNFGKHF@__swift_2@ 0000000180024ab0     libvcruntime:undname.obj
 0002:00000ac0       ??_C@_07JOMMBBKO@__ptr64@  0000000180024ac0     libvcruntime:undname.obj
 0002:00000ac8       ??_C@_0L@PILCLIHE@__restrict@ 0000000180024ac8     libvcruntime:undname.obj
 0002:00000ad8       ??_C@_0M@GFIIJFMG@__unaligned@ 0000000180024ad8     libvcruntime:undname.obj
 0002:00000ae8       ??_C@_09DHDLOLLB@restrict?$CI@ 0000000180024ae8     libvcruntime:undname.obj
 0002:00000af4       ??_C@_04NIHEBCM@?5new@     0000000180024af4     libvcruntime:undname.obj
 0002:00000b00       ??_C@_07FPCDHGMM@?5delete@ 0000000180024b00     libvcruntime:undname.obj
 0002:00000b08       ??_C@_01NEMOKFLO@?$DN@     0000000180024b08     libvcruntime:undname.obj
 0002:00000b0c       ??_C@_02GPIOPFAK@?$DO?$DO@ 0000000180024b0c     libvcruntime:undname.obj
 0002:00000b10       ??_C@_02FODMEDOG@?$DM?$DM@ 0000000180024b10     libvcruntime:undname.obj
 0002:00000b14       ??_C@_01DCLJPIOD@?$CB@     0000000180024b14     libvcruntime:undname.obj
 0002:00000b18       ??_C@_02EGOFBIJA@?$DN?$DN@ 0000000180024b18     libvcruntime:undname.obj
 0002:00000b1c       ??_C@_02FDNJECIE@?$CB?$DN@ 0000000180024b1c     libvcruntime:undname.obj
 0002:00000b20       ??_C@_02GPECMEKF@?$FL?$FN@ 0000000180024b20     libvcruntime:undname.obj
 0002:00000b28       ??_C@_08LHJFAFGD@operator@ 0000000180024b28     libvcruntime:undname.obj
 0002:00000b34       ??_C@_02HBOOOICD@?9?$DO@   0000000180024b34     libvcruntime:undname.obj
 0002:00000b38       ??_C@_01NBENCBCI@?$CK@     0000000180024b38     libvcruntime:undname.obj
 0002:00000b3c       ??_C@_02ECNGHCIF@?$CL?$CL@ 0000000180024b3c     libvcruntime:undname.obj
 0002:00000b40       ??_C@_02BAABKJLB@?9?9@     0000000180024b40     libvcruntime:undname.obj
 0002:00000b44       ??_C@_01JOAMLHOP@?9@       0000000180024b44     libvcruntime:undname.obj
 0002:00000b48       ??_C@_01MIFGBAGJ@?$CL@     0000000180024b48     libvcruntime:undname.obj
 0002:00000b4c       ??_C@_01HNPIGOCE@?$CG@     0000000180024b4c     libvcruntime:undname.obj
 0002:00000b50       ??_C@_03MNHNFDLC@?9?$DO?$CK@ 0000000180024b50     libvcruntime:undname.obj
 0002:00000b54       ??_C@_01KMDKNFGN@?1@       0000000180024b54     libvcruntime:undname.obj
 0002:00000b58       ??_C@_01FGNFDNOH@?$CF@     0000000180024b58     libvcruntime:undname.obj
 0002:00000b5c       ??_C@_01MNNFJEPP@?$DM@     0000000180024b5c     libvcruntime:undname.obj
 0002:00000b60       ??_C@_02EHCHHCKH@?$DM?$DN@ 0000000180024b60     libvcruntime:undname.obj
 0002:00000b64       ??_C@_01PPODPGHN@?$DO@     0000000180024b64     libvcruntime:undname.obj
 0002:00000b68       ??_C@_02EEKDKGMJ@?$DO?$DN@ 0000000180024b68     libvcruntime:undname.obj
 0002:00000b6c       ??_C@_01IHBHIGKO@?0@       0000000180024b6c     libvcruntime:undname.obj
 0002:00000b70       ??_C@_02HCKGKOFO@?$CI?$CJ@ 0000000180024b70     libvcruntime:undname.obj
 0002:00000b74       ??_C@_01PJKLJHI@?$HO@      0000000180024b74     libvcruntime:undname.obj
 0002:00000b78       ??_C@_01JKBOJNNK@?$FO@     0000000180024b78     libvcruntime:undname.obj
 0002:00000b7c       ??_C@_01DNKMNLPK@?$HM@     0000000180024b7c     libvcruntime:undname.obj
 0002:00000b80       ??_C@_02PPKAJPJL@?$CG?$CG@ 0000000180024b80     libvcruntime:undname.obj
 0002:00000b84       ??_C@_02NONPIBCD@?$HM?$HM@ 0000000180024b84     libvcruntime:undname.obj
 0002:00000b88       ??_C@_02FPIMKNGF@?$CK?$DN@ 0000000180024b88     libvcruntime:undname.obj
 0002:00000b8c       ??_C@_02FOEOMHFC@?$CL?$DN@ 0000000180024b8c     libvcruntime:undname.obj
 0002:00000b90       ??_C@_02FKMDLLOA@?9?$DN@   0000000180024b90     libvcruntime:undname.obj
 0002:00000b94       ??_C@_02FJEHGPIO@?1?$DN@   0000000180024b94     libvcruntime:undname.obj
 0002:00000b98       ??_C@_02FENAOKFI@?$CF?$DN@ 0000000180024b98     libvcruntime:undname.obj
 0002:00000b9c       ??_C@_03IKFCCPFF@?$DO?$DO?$DN@ 0000000180024b9c     libvcruntime:undname.obj
 0002:00000ba0       ??_C@_03CDNPDDLA@?$DM?$DM?$DN@ 0000000180024ba0     libvcruntime:undname.obj
 0002:00000ba4       ??_C@_02FGJGFEAB@?$CG?$DN@ 0000000180024ba4     libvcruntime:undname.obj
 0002:00000ba8       ??_C@_02DHLNPPGH@?$HM?$DN@ 0000000180024ba8     libvcruntime:undname.obj
 0002:00000bac       ??_C@_02MHEGNOJ@?$FO?$DN@  0000000180024bac     libvcruntime:undname.obj
 0002:00000bb0       ??_C@_09IFPLHPGF@?$GAvftable?8@ 0000000180024bb0     libvcruntime:undname.obj
 0002:00000bc0       ??_C@_09BLBHBJP@?$GAvbtable?8@ 0000000180024bc0     libvcruntime:undname.obj
 0002:00000bd0       ??_C@_07FEEIOKP@?$GAvcall?8@ 0000000180024bd0     libvcruntime:undname.obj
 0002:00000bd8       ??_C@_08LLFFHHDJ@?$GAtypeof?8@ 0000000180024bd8     libvcruntime:undname.obj
 0002:00000be8       ??_C@_0BF@KDPPACIK@?$GAlocal?5static?5guard?8@ 0000000180024be8     libvcruntime:undname.obj
 0002:00000c00       ??_C@_08OBABFOLI@?$GAstring?8@ 0000000180024c00     libvcruntime:undname.obj
 0002:00000c10       ??_C@_0BD@JDLKDPAB@?$GAvbase?5destructor?8@ 0000000180024c10     libvcruntime:undname.obj
 0002:00000c28       ??_C@_0BN@DEGPLNFK@?$GAvector?5deleting?5destructor?8@ 0000000180024c28     libvcruntime:undname.obj
 0002:00000c48       ??_C@_0BO@OBMKPJIG@?$GAdefault?5constructor?5closure?8@ 0000000180024c48     libvcruntime:undname.obj
 0002:00000c68       ??_C@_0BN@IMDCHIKM@?$GAscalar?5deleting?5destructor?8@ 0000000180024c68     libvcruntime:undname.obj
 0002:00000c88       ??_C@_0BO@PFGOCPJJ@?$GAvector?5constructor?5iterator?8@ 0000000180024c88     libvcruntime:undname.obj
 0002:00000ca8       ??_C@_0BN@LFPFMEDL@?$GAvector?5destructor?5iterator?8@ 0000000180024ca8     libvcruntime:undname.obj
 0002:00000cc8       ??_C@_0CE@IKBNEHA@?$GAvector?5vbase?5constructor?5itera@ 0000000180024cc8     libvcruntime:undname.obj
 0002:00000cf0       ??_C@_0BL@NILFHHPC@?$GAvirtual?5displacement?5map?8@ 0000000180024cf0     libvcruntime:undname.obj
 0002:00000d10       ??_C@_0CB@JONCMFFK@?$GAeh?5vector?5constructor?5iterator@ 0000000180024d10     libvcruntime:undname.obj
 0002:00000d38       ??_C@_0CA@GCEOPDGL@?$GAeh?5vector?5destructor?5iterator?8@ 0000000180024d38     libvcruntime:undname.obj
 0002:00000d58       ??_C@_0CH@OOJPLCPH@?$GAeh?5vector?5vbase?5constructor?5it@ 0000000180024d58     libvcruntime:undname.obj
 0002:00000d80       ??_C@_0BL@LLKPOHJI@?$GAcopy?5constructor?5closure?8@ 0000000180024d80     libvcruntime:undname.obj
 0002:00000da0       ??_C@_0BA@KBCDOMBN@?$GAudt?5returning?8@ 0000000180024da0     libvcruntime:undname.obj
 0002:00000db0       ??_C@_03KLGMFNMG@?$GAEH@   0000000180024db0     libvcruntime:undname.obj
 0002:00000db4       ??_C@_05KHLCHHI@?$GARTTI@  0000000180024db4     libvcruntime:undname.obj
 0002:00000dc0       ??_C@_0BA@KKLDJDLB@?$GAlocal?5vftable?8@ 0000000180024dc0     libvcruntime:undname.obj
 0002:00000dd0       ??_C@_0CE@IIHCMGGL@?$GAlocal?5vftable?5constructor?5clos@ 0000000180024dd0     libvcruntime:undname.obj
 0002:00000df4       ??_C@_06FHBGPFGH@?5new?$FL?$FN@ 0000000180024df4     libvcruntime:undname.obj
 0002:00000e00       ??_C@_09LBNFPBCA@?5delete?$FL?$FN@ 0000000180024e00     libvcruntime:undname.obj
 0002:00000e10       ??_C@_0P@HJKNJFNN@?$GAomni?5callsig?8@ 0000000180024e10     libvcruntime:undname.obj
 0002:00000e20       ??_C@_0BL@CNOONJFP@?$GAplacement?5delete?5closure?8@ 0000000180024e20     libvcruntime:undname.obj
 0002:00000e40       ??_C@_0BN@CKNJLHMB@?$GAplacement?5delete?$FL?$FN?5closure?8@ 0000000180024e40     libvcruntime:undname.obj
 0002:00000e60       ??_C@_0CG@CFDHKGGD@?$GAmanaged?5vector?5constructor?5ite@ 0000000180024e60     libvcruntime:undname.obj
 0002:00000e88       ??_C@_0CF@IMGKMJNO@?$GAmanaged?5vector?5destructor?5iter@ 0000000180024e88     libvcruntime:undname.obj
 0002:00000eb0       ??_C@_0CG@HLDDJMAG@?$GAeh?5vector?5copy?5constructor?5ite@ 0000000180024eb0     libvcruntime:undname.obj
 0002:00000ed8       ??_C@_0CM@FCBBDIGB@?$GAeh?5vector?5vbase?5copy?5construct@ 0000000180024ed8     libvcruntime:undname.obj
 0002:00000f08       ??_C@_0BL@CLIPGLGB@?$GAdynamic?5initializer?5for?5?8@ 0000000180024f08     libvcruntime:undname.obj
 0002:00000f28       ??_C@_0CB@PDBIFEP@?$GAdynamic?5atexit?5destructor?5for?5@ 0000000180024f28     libvcruntime:undname.obj
 0002:00000f50       ??_C@_0CD@CGAJBKEJ@?$GAvector?5copy?5constructor?5iterat@ 0000000180024f50     libvcruntime:undname.obj
 0002:00000f78       ??_C@_0CJ@GJELGAMM@?$GAvector?5vbase?5copy?5constructor?5@ 0000000180024f78     libvcruntime:undname.obj
 0002:00000fa8       ??_C@_0CL@FGIJHLCE@?$GAmanaged?5vector?5copy?5constructo@ 0000000180024fa8     libvcruntime:undname.obj
 0002:00000fd8       ??_C@_0BM@PMGGMLDN@?$GAlocal?5static?5thread?5guard?8@ 0000000180024fd8     libvcruntime:undname.obj
 0002:00000ff8       ??_C@_0N@BDNMDMOL@operator?5?$CC?$CC?5@ 0000000180024ff8     libvcruntime:undname.obj
 0002:00001008       ??_C@_0BC@GGEBGALA@operator?5co_await@ 0000000180025008     libvcruntime:undname.obj
 0002:00001020       ??_C@_0M@GAAIMMOH@operator?$DM?$DN?$DO@ 0000000180025020     libvcruntime:undname.obj
 0002:00001030       ??_C@_0BC@DAFEJGAK@?5Type?5Descriptor?8@ 0000000180025030     libvcruntime:undname.obj
 0002:00001048       ??_C@_0BM@LDKODKLH@?5Base?5Class?5Descriptor?5at?5?$CI@ 0000000180025048     libvcruntime:undname.obj
 0002:00001068       ??_C@_0BD@LGICGFMM@?5Base?5Class?5Array?8@ 0000000180025068     libvcruntime:undname.obj
 0002:00001080       ??_C@_0BN@MECKDCOJ@?5Class?5Hierarchy?5Descriptor?8@ 0000000180025080     libvcruntime:undname.obj
 0002:000010a0       ??_C@_0BK@CFCOFLF@?5Complete?5Object?5Locator?8@ 00000001800250a0     libvcruntime:undname.obj
 0002:000010c0       ??_C@_0BG@JNJLAMPM@?$GAanonymous?5namespace?8@ 00000001800250c0     libvcruntime:undname.obj
 0002:000010f0       ??_C@_1DM@KHCHBNEB@?$AAa?$AAp?$AAi?$AA?9?$AAm?$AAs?$AA?9?$AAw?$AAi?$AAn?$AA?9?$AAc?$AAo?$AAr?$AAe@ 00000001800250f0     libvcruntime:winapi_downlevel.obj
 0002:00001130       ??_C@_1DK@LPPGFMPP@?$AAa?$AAp?$AAi?$AA?9?$AAm?$AAs?$AA?9?$AAw?$AAi?$AAn?$AA?9?$AAc?$AAo?$AAr?$AAe@ 0000000180025130     libvcruntime:winapi_downlevel.obj
 0002:00001170       ??_C@_1BC@GDMECMAK@?$AAk?$AAe?$AAr?$AAn?$AAe?$AAl?$AA3?$AA2@ 0000000180025170     libvcruntime:winapi_downlevel.obj
 0002:00001188       ??_C@_1BA@PFFKHIOG@?$AAa?$AAp?$AAi?$AA?9?$AAm?$AAs?$AA?9@ 0000000180025188     libvcruntime:winapi_downlevel.obj
 0002:000011a0       ??_C@_08KNHFBNJ@FlsAlloc@  00000001800251a0     libvcruntime:winapi_downlevel.obj
 0002:000011b8       ??_C@_07PEJMOBNF@FlsFree@  00000001800251b8     libvcruntime:winapi_downlevel.obj
 0002:000011c8       ??_C@_0M@GDNOONDI@FlsGetValue@ 00000001800251c8     libvcruntime:winapi_downlevel.obj
 0002:000011e0       ??_C@_0M@JCPCPOEF@FlsSetValue@ 00000001800251e0     libvcruntime:winapi_downlevel.obj
 0002:000011f8       ??_C@_0BM@HCFOFFN@InitializeCriticalSectionEx@ 00000001800251f8     libvcruntime:winapi_downlevel.obj
 0002:00001390       __acrt_exception_action_table 0000000180025390     libucrt:exception_filter.obj
 0002:00001450       __acrt_signal_action_table_count 0000000180025450     libucrt:exception_filter.obj
 0002:00001458       __acrt_signal_action_first_fpe_index 0000000180025458     libucrt:exception_filter.obj
 0002:00001460       __acrt_signal_action_fpe_count 0000000180025460     libucrt:exception_filter.obj
 0002:00001468       ??_C@_1BI@BGOHAHKC@?$AAm?$AAs?$AAc?$AAo?$AAr?$AAe?$AAe?$AA?4?$AAd?$AAl?$AAl@ 0000000180025468     libucrt:exit.obj
 0002:00001480       ??_C@_0P@MIGLKIOC@CorExitProcess@ 0000000180025480     libucrt:exit.obj
 0002:00001590       __lc_time_c                0000000180025590     libucrt:nlsdata.obj
 0002:00001850       ??_C@_03KOEHGMDN@Sun@      0000000180025850     libucrt:nlsdata.obj
 0002:00001854       ??_C@_03PDAGKDH@Mon@       0000000180025854     libucrt:nlsdata.obj
 0002:00001858       ??_C@_03NAGEINEP@Tue@      0000000180025858     libucrt:nlsdata.obj
 0002:0000185c       ??_C@_03MHOMLAJA@Wed@      000000018002585c     libucrt:nlsdata.obj
 0002:00001860       ??_C@_03IOFIKPDN@Thu@      0000000180025860     libucrt:nlsdata.obj
 0002:00001864       ??_C@_03IDIOELNC@Fri@      0000000180025864     libucrt:nlsdata.obj
 0002:00001868       ??_C@_03FEFJNEK@Sat@       0000000180025868     libucrt:nlsdata.obj
 0002:0000186c       ??_C@_06OOPIFAJ@Sunday@    000000018002586c     libucrt:nlsdata.obj
 0002:00001874       ??_C@_06JLEDEDGH@Monday@   0000000180025874     libucrt:nlsdata.obj
 0002:00001880       ??_C@_07BAAGCFCM@Tuesday@  0000000180025880     libucrt:nlsdata.obj
 0002:00001888       ??_C@_09DLIGFAKA@Wednesday@ 0000000180025888     libucrt:nlsdata.obj
 0002:00001898       ??_C@_08HACCIKIA@Thursday@ 0000000180025898     libucrt:nlsdata.obj
 0002:000018a4       ??_C@_06JECMNKMI@Friday@   00000001800258a4     libucrt:nlsdata.obj
 0002:000018b0       ??_C@_08INBOOONO@Saturday@ 00000001800258b0     libucrt:nlsdata.obj
 0002:000018bc       ??_C@_03JIHJHPIE@Jan@      00000001800258bc     libucrt:nlsdata.obj
 0002:000018c0       ??_C@_03HJBDCHOM@Feb@      00000001800258c0     libucrt:nlsdata.obj
 0002:000018c4       ??_C@_03ODNJBKGA@Mar@      00000001800258c4     libucrt:nlsdata.obj
 0002:000018c8       ??_C@_03LEOLGMJP@Apr@      00000001800258c8     libucrt:nlsdata.obj
 0002:000018cc       ??_C@_03CNMDKL@May@        00000001800258cc     libucrt:nlsdata.obj
 0002:000018d0       ??_C@_03IDFGHECI@Jun@      00000001800258d0     libucrt:nlsdata.obj
 0002:000018d4       ??_C@_03LBGABGKK@Jul@      00000001800258d4     libucrt:nlsdata.obj
 0002:000018d8       ??_C@_03IFJFEIGA@Aug@      00000001800258d8     libucrt:nlsdata.obj
 0002:000018dc       ??_C@_03GGCAPAJC@Sep@      00000001800258dc     libucrt:nlsdata.obj
 0002:000018e0       ??_C@_03BMAOKBAD@Oct@      00000001800258e0     libucrt:nlsdata.obj
 0002:000018e4       ??_C@_03JPJOFNIA@Nov@      00000001800258e4     libucrt:nlsdata.obj
 0002:000018e8       ??_C@_03MKABNOCG@Dec@      00000001800258e8     libucrt:nlsdata.obj
 0002:000018f0       ??_C@_07CGJPFGJA@January@  00000001800258f0     libucrt:nlsdata.obj
 0002:000018f8       ??_C@_08GNJGEPFN@February@ 00000001800258f8     libucrt:nlsdata.obj
 0002:00001904       ??_C@_05HPCKOFNC@March@    0000000180025904     libucrt:nlsdata.obj
 0002:0000190c       ??_C@_05DMJDNLEJ@April@    000000018002590c     libucrt:nlsdata.obj
 0002:00001914       ??_C@_04CNLMGBGM@June@     0000000180025914     libucrt:nlsdata.obj
 0002:0000191c       ??_C@_04MIEPOIFP@July@     000000018002591c     libucrt:nlsdata.obj
 0002:00001924       ??_C@_06LBBHFDDG@August@   0000000180025924     libucrt:nlsdata.obj
 0002:00001930       ??_C@_09BHHEALKD@September@ 0000000180025930     libucrt:nlsdata.obj
 0002:00001940       ??_C@_07JJNFCEND@October@  0000000180025940     libucrt:nlsdata.obj
 0002:00001948       ??_C@_08HCHEGEOA@November@ 0000000180025948     libucrt:nlsdata.obj
 0002:00001958       ??_C@_08EDHMEBNP@December@ 0000000180025958     libucrt:nlsdata.obj
 0002:00001964       ??_C@_02DEDBPAFC@AM@       0000000180025964     libucrt:nlsdata.obj
 0002:00001968       ??_C@_02CJNFDJBF@PM@       0000000180025968     libucrt:nlsdata.obj
 0002:00001970       ??_C@_08BPBNCDIB@MM?1dd?1yy@ 0000000180025970     libucrt:nlsdata.obj
 0002:00001980       ??_C@_0BE@CKGJFCPC@dddd?0?5MMMM?5dd?0?5yyyy@ 0000000180025980     libucrt:nlsdata.obj
 0002:00001998       ??_C@_08JCCMCCIL@HH?3mm?3ss@ 0000000180025998     libucrt:nlsdata.obj
 0002:000019a8       ??_C@_17MBGCMIPB@?$AAS?$AAu?$AAn@ 00000001800259a8     libucrt:nlsdata.obj
 0002:000019b0       ??_C@_17KBOMKBF@?$AAM?$AAo?$AAn@ 00000001800259b0     libucrt:nlsdata.obj
 0002:000019b8       ??_C@_17BMKGEGOJ@?$AAT?$AAu?$AAe@ 00000001800259b8     libucrt:nlsdata.obj
 0002:000019c0       ??_C@_17CJEDCEPE@?$AAW?$AAe?$AAd@ 00000001800259c0     libucrt:nlsdata.obj
 0002:000019c8       ??_C@_17PDPHAADD@?$AAT?$AAh?$AAu@ 00000001800259c8     libucrt:nlsdata.obj
 0002:000019d0       ??_C@_17HFOLPPLP@?$AAF?$AAr?$AAi@ 00000001800259d0     libucrt:nlsdata.obj
 0002:000019d8       ??_C@_17GGIBDPIH@?$AAS?$AAa?$AAt@ 00000001800259d8     libucrt:nlsdata.obj
 0002:000019e0       ??_C@_1O@IHNHDHPB@?$AAS?$AAu?$AAn?$AAd?$AAa?$AAy@ 00000001800259e0     libucrt:nlsdata.obj
 0002:000019f0       ??_C@_1O@MMNBFLIA@?$AAM?$AAo?$AAn?$AAd?$AAa?$AAy@ 00000001800259f0     libucrt:nlsdata.obj
 0002:00001a00       ??_C@_1BA@ENFBFFEK@?$AAT?$AAu?$AAe?$AAs?$AAd?$AAa?$AAy@ 0000000180025a00     libucrt:nlsdata.obj
 0002:00001a10       ??_C@_1BE@EBOGMDOH@?$AAW?$AAe?$AAd?$AAn?$AAe?$AAs?$AAd?$AAa?$AAy@ 0000000180025a10     libucrt:nlsdata.obj
 0002:00001a28       ??_C@_1BC@HHMNLIHE@?$AAT?$AAh?$AAu?$AAr?$AAs?$AAd?$AAa?$AAy@ 0000000180025a28     libucrt:nlsdata.obj
 0002:00001a40       ??_C@_1O@PDICJHAG@?$AAF?$AAr?$AAi?$AAd?$AAa?$AAy@ 0000000180025a40     libucrt:nlsdata.obj
 0002:00001a50       ??_C@_1BC@ENMNNPAJ@?$AAS?$AAa?$AAt?$AAu?$AAr?$AAd?$AAa?$AAy@ 0000000180025a50     libucrt:nlsdata.obj
 0002:00001a68       ??_C@_17DKNBKCHM@?$AAJ?$AAa?$AAn@ 0000000180025a68     libucrt:nlsdata.obj
 0002:00001a70       ??_C@_17LMDJEKJN@?$AAF?$AAe?$AAb@ 0000000180025a70     libucrt:nlsdata.obj
 0002:00001a78       ??_C@_17CKNLEDEC@?$AAM?$AAa?$AAr@ 0000000180025a78     libucrt:nlsdata.obj
 0002:00001a80       ??_C@_17LFPOIHDD@?$AAA?$AAp?$AAr@ 0000000180025a80     libucrt:nlsdata.obj
 0002:00001a88       ??_C@_17PNNKMEED@?$AAM?$AAa?$AAy@ 0000000180025a88     libucrt:nlsdata.obj
 0002:00001a90       ??_C@_17KCJGOCPB@?$AAJ?$AAu?$AAn@ 0000000180025a90     libucrt:nlsdata.obj
 0002:00001a98       ??_C@_17IJPCKHK@?$AAJ?$AAu?$AAl@ 0000000180025a98     libucrt:nlsdata.obj
 0002:00001aa0       ??_C@_17ICPELBCN@?$AAA?$AAu?$AAg@ 0000000180025aa0     libucrt:nlsdata.obj
 0002:00001aa8       ??_C@_17HCHCOKMG@?$AAS?$AAe?$AAp@ 0000000180025aa8     libucrt:nlsdata.obj
 0002:00001ab0       ??_C@_17FNLKOI@?$AAO?$AAc?$AAt@ 0000000180025ab0     libucrt:nlsdata.obj
 0002:00001ab8       ??_C@_17BBDMLCIG@?$AAN?$AAo?$AAv@ 0000000180025ab8     libucrt:nlsdata.obj
 0002:00001ac0       ??_C@_17EGKACKIF@?$AAD?$AAe?$AAc@ 0000000180025ac0     libucrt:nlsdata.obj
 0002:00001ac8       ??_C@_1BA@EFMEIEBA@?$AAJ?$AAa?$AAn?$AAu?$AAa?$AAr?$AAy@ 0000000180025ac8     libucrt:nlsdata.obj
 0002:00001ad8       ??_C@_1BC@JGDDFFAM@?$AAF?$AAe?$AAb?$AAr?$AAu?$AAa?$AAr?$AAy@ 0000000180025ad8     libucrt:nlsdata.obj
 0002:00001af0       ??_C@_1M@IKEENEDF@?$AAM?$AAa?$AAr?$AAc?$AAh@ 0000000180025af0     libucrt:nlsdata.obj
 0002:00001b00       ??_C@_1M@GJNLMHFD@?$AAA?$AAp?$AAr?$AAi?$AAl@ 0000000180025b00     libucrt:nlsdata.obj
 0002:00001b10       ??_C@_19EPFLPGAP@?$AAJ?$AAu?$AAn?$AAe@ 0000000180025b10     libucrt:nlsdata.obj
 0002:00001b20       ??_C@_19BIFMLPCD@?$AAJ?$AAu?$AAl?$AAy@ 0000000180025b20     libucrt:nlsdata.obj
 0002:00001b30       ??_C@_1O@PAHLKOAC@?$AAA?$AAu?$AAg?$AAu?$AAs?$AAt@ 0000000180025b30     libucrt:nlsdata.obj
 0002:00001b40       ??_C@_1BE@DKAAMBJL@?$AAS?$AAe?$AAp?$AAt?$AAe?$AAm?$AAb?$AAe?$AAr@ 0000000180025b40     libucrt:nlsdata.obj
 0002:00001b58       ??_C@_1BA@EPANDLNG@?$AAO?$AAc?$AAt?$AAo?$AAb?$AAe?$AAr@ 0000000180025b58     libucrt:nlsdata.obj
 0002:00001b68       ??_C@_1BC@BGLIFPF@?$AAN?$AAo?$AAv?$AAe?$AAm?$AAb?$AAe?$AAr@ 0000000180025b68     libucrt:nlsdata.obj
 0002:00001b80       ??_C@_1BC@FEMKIFH@?$AAD?$AAe?$AAc?$AAe?$AAm?$AAb?$AAe?$AAr@ 0000000180025b80     libucrt:nlsdata.obj
 0002:00001b94       ??_C@_15ODEHAHHF@?$AAA?$AAM@ 0000000180025b94     libucrt:nlsdata.obj
 0002:00001b9c       ??_C@_15CLMNNGEL@?$AAP?$AAM@ 0000000180025b9c     libucrt:nlsdata.obj
 0002:00001ba8       ??_C@_1BC@IEBCMHCM@?$AAM?$AAM?$AA?1?$AAd?$AAd?$AA?1?$AAy?$AAy@ 0000000180025ba8     libucrt:nlsdata.obj
 0002:00001bc0       ??_C@_1CI@KNAKOEBC@?$AAd?$AAd?$AAd?$AAd?$AA?0?$AA?5?$AAM?$AAM?$AAM?$AAM?$AA?5?$AAd?$AAd?$AA?0?$AA?5@ 0000000180025bc0     libucrt:nlsdata.obj
 0002:00001be8       ??_C@_1BC@GDGBMEMK@?$AAH?$AAH?$AA?3?$AAm?$AAm?$AA?3?$AAs?$AAs@ 0000000180025be8     libucrt:nlsdata.obj
 0002:00001c00       ??_C@_1M@BMHNFIME@?$AAe?$AAn?$AA?9?$AAU?$AAS@ 0000000180025c00     libucrt:nlsdata.obj
 0002:00001c30       ??_C@_1M@HPNHIDJI@?$AAj?$AAa?$AA?9?$AAJ?$AAP@ 0000000180025c30     libucrt:mbctype.obj
 0002:00001c40       ??_C@_1M@BIBDDEMK@?$AAz?$AAh?$AA?9?$AAC?$AAN@ 0000000180025c40     libucrt:mbctype.obj
 0002:00001c50       ??_C@_1M@JLOOOEGK@?$AAk?$AAo?$AA?9?$AAK?$AAR@ 0000000180025c50     libucrt:mbctype.obj
 0002:00001c60       ??_C@_1M@CLNBBOPM@?$AAz?$AAh?$AA?9?$AAT?$AAW@ 0000000180025c60     libucrt:mbctype.obj
 0002:00001d10       ??_C@_1EA@JGEFHKEI@?$AAa?$AAp?$AAi?$AA?9?$AAm?$AAs?$AA?9?$AAw?$AAi?$AAn?$AA?9?$AAc?$AAo?$AAr?$AAe@ 0000000180025d10     libucrt:winapi_thunks.obj
 0002:00001d50       ??_C@_1DI@IJCEHOCB@?$AAa?$AAp?$AAi?$AA?9?$AAm?$AAs?$AA?9?$AAw?$AAi?$AAn?$AA?9?$AAc?$AAo?$AAr?$AAe@ 0000000180025d50     libucrt:winapi_thunks.obj
 0002:00001d90       ??_C@_1EI@MPIAOHOC@?$AAa?$AAp?$AAi?$AA?9?$AAm?$AAs?$AA?9?$AAw?$AAi?$AAn?$AA?9?$AAc?$AAo?$AAr?$AAe@ 0000000180025d90     libucrt:winapi_thunks.obj
 0002:00001de0       ??_C@_1FK@FPHCKFIE@?$AAa?$AAp?$AAi?$AA?9?$AAm?$AAs?$AA?9?$AAw?$AAi?$AAn?$AA?9?$AAc?$AAo?$AAr?$AAe@ 0000000180025de0     libucrt:winapi_thunks.obj
 0002:00001e40       ??_C@_1EM@DILCGIIO@?$AAa?$AAp?$AAi?$AA?9?$AAm?$AAs?$AA?9?$AAw?$AAi?$AAn?$AA?9?$AAc?$AAo?$AAr?$AAe@ 0000000180025e40     libucrt:winapi_thunks.obj
 0002:00001e90       ??_C@_1DM@LNCGDDPN@?$AAa?$AAp?$AAi?$AA?9?$AAm?$AAs?$AA?9?$AAw?$AAi?$AAn?$AA?9?$AAc?$AAo?$AAr?$AAe@ 0000000180025e90     libucrt:winapi_thunks.obj
 0002:00001ed0       ??_C@_1DO@FPAPJEMD@?$AAa?$AAp?$AAi?$AA?9?$AAm?$AAs?$AA?9?$AAw?$AAi?$AAn?$AA?9?$AAc?$AAo?$AAr?$AAe@ 0000000180025ed0     libucrt:winapi_thunks.obj
 0002:00001f10       ??_C@_1DK@NDHNAHIO@?$AAa?$AAp?$AAi?$AA?9?$AAm?$AAs?$AA?9?$AAw?$AAi?$AAn?$AA?9?$AAc?$AAo?$AAr?$AAe@ 0000000180025f10     libucrt:winapi_thunks.obj
 0002:00001f50       ??_C@_1DM@KGHDGBCM@?$AAa?$AAp?$AAi?$AA?9?$AAm?$AAs?$AA?9?$AAw?$AAi?$AAn?$AA?9?$AAc?$AAo?$AAr?$AAe@ 0000000180025f50     libucrt:winapi_thunks.obj
 0002:00001f90       ??_C@_1EO@IJIOEFOH@?$AAa?$AAp?$AAi?$AA?9?$AAm?$AAs?$AA?9?$AAw?$AAi?$AAn?$AA?9?$AAr?$AAt?$AAc?$AAo@ 0000000180025f90     libucrt:winapi_thunks.obj
 0002:00001fe0       ??_C@_1FG@HHGEKANL@?$AAa?$AAp?$AAi?$AA?9?$AAm?$AAs?$AA?9?$AAw?$AAi?$AAn?$AA?9?$AAs?$AAe?$AAc?$AAu@ 0000000180025fe0     libucrt:winapi_thunks.obj
 0002:00002040       ??_C@_1EG@DBIOJECG@?$AAe?$AAx?$AAt?$AA?9?$AAm?$AAs?$AA?9?$AAw?$AAi?$AAn?$AA?9?$AAn?$AAt?$AAu?$AAs@ 0000000180026040     libucrt:winapi_thunks.obj
 0002:00002090       ??_C@_1EO@FIHMJCLF@?$AAe?$AAx?$AAt?$AA?9?$AAm?$AAs?$AA?9?$AAw?$AAi?$AAn?$AA?9?$AAn?$AAt?$AAu?$AAs@ 0000000180026090     libucrt:winapi_thunks.obj
 0002:000020e0       ??_C@_1BC@DNHGCMLG@?$AAa?$AAd?$AAv?$AAa?$AAp?$AAi?$AA3?$AA2@ 00000001800260e0     libucrt:winapi_thunks.obj
 0002:000020f8       ??_C@_1M@OAIMIKLP@?$AAn?$AAt?$AAd?$AAl?$AAl@ 00000001800260f8     libucrt:winapi_thunks.obj
 0002:00002110       ??_C@_1EG@DPGNFKGC@?$AAa?$AAp?$AAi?$AA?9?$AAm?$AAs?$AA?9?$AAw?$AAi?$AAn?$AA?9?$AAa?$AAp?$AAp?$AAm@ 0000000180026110     libucrt:winapi_thunks.obj
 0002:00002158       ??_C@_1O@BCCLBEOE@?$AAu?$AAs?$AAe?$AAr?$AA3?$AA2@ 0000000180026158     libucrt:winapi_thunks.obj
 0002:00002168       ??_C@_1BA@IAIFMGEF@?$AAe?$AAx?$AAt?$AA?9?$AAm?$AAs?$AA?9@ 0000000180026168     libucrt:winapi_thunks.obj
 0002:00002180       ??_C@_0BA@FHFNEAED@AreFileApisANSI@ 0000000180026180     libucrt:winapi_thunks.obj
 0002:000021c0       ??_C@_0O@KKBNKAPF@LCMapStringEx@ 00000001800261c0     libucrt:winapi_thunks.obj
 0002:000021d8       ??_C@_0BB@HBDEELFH@LocaleNameToLCID@ 00000001800261d8     libucrt:winapi_thunks.obj
 0002:000021f0       ??_C@_0CF@OJOFEIGO@AppPolicyGetProcessTerminationM@ 00000001800261f0     libucrt:winapi_thunks.obj
 0002:00002220       __newctype                 0000000180026220     libucrt:ctype.obj
 0002:00002520       __newclmap                 0000000180026520     libucrt:ctype.obj
 0002:000026a0       __newcumap                 00000001800266a0     libucrt:ctype.obj
 0002:00002820       ??_C@_15PJPFLCCM@?$AAu?$AAk@ 0000000180026820     libucrt:get_qualified_locale.obj
 0002:00003670       ??_C@_15EMKDOKLE@?$AAa?$AAr@ 0000000180027670     libucrt:lcidtoname_downlevel.obj
 0002:00003678       ??_C@_15KNPADPLH@?$AAb?$AAg@ 0000000180027678     libucrt:lcidtoname_downlevel.obj
 0002:00003680       ??_C@_15EDMHLDMO@?$AAc?$AAa@ 0000000180027680     libucrt:lcidtoname_downlevel.obj
 0002:00003688       ??_C@_1O@BPEAJADD@?$AAz?$AAh?$AA?9?$AAC?$AAH?$AAS@ 0000000180027688     libucrt:lcidtoname_downlevel.obj
 0002:00003698       ??_C@_15LJNHCMNK@?$AAc?$AAs@ 0000000180027698     libucrt:lcidtoname_downlevel.obj
 0002:000036a0       ??_C@_15FOMCIDHG@?$AAd?$AAa@ 00000001800276a0     libucrt:lcidtoname_downlevel.obj
 0002:000036a8       ??_C@_15NBKABECB@?$AAd?$AAe@ 00000001800276a8     libucrt:lcidtoname_downlevel.obj
 0002:000036b0       ??_C@_15GHPEIIAO@?$AAe?$AAl@ 00000001800276b0     libucrt:lcidtoname_downlevel.obj
 0002:000036b8       ??_C@_15MNPNEAIF@?$AAe?$AAn@ 00000001800276b8     libucrt:lcidtoname_downlevel.obj
 0002:000036c0       ??_C@_15GPIOMPMH@?$AAe?$AAs@ 00000001800276c0     libucrt:lcidtoname_downlevel.obj
 0002:000036c8       ??_C@_15NGLOAKJC@?$AAf?$AAi@ 00000001800276c8     libucrt:lcidtoname_downlevel.obj
 0002:000036d0       ??_C@_15FBKGNKAM@?$AAf?$AAr@ 00000001800276d0     libucrt:lcidtoname_downlevel.obj
 0002:000036d8       ??_C@_15KGGCNEFK@?$AAh?$AAe@ 00000001800276d8     libucrt:lcidtoname_downlevel.obj
 0002:000036e0       ??_C@_15PGHLIDMF@?$AAh?$AAu@ 00000001800276e0     libucrt:lcidtoname_downlevel.obj
 0002:000036e8       ??_C@_15BIEMAPLM@?$AAi?$AAs@ 00000001800276e8     libucrt:lcidtoname_downlevel.obj
 0002:000036f0       ??_C@_15IFJLDHAF@?$AAi?$AAt@ 00000001800276f0     libucrt:lcidtoname_downlevel.obj
 0002:000036f8       ??_C@_15GEMIOCAG@?$AAj?$AAa@ 00000001800276f8     libucrt:lcidtoname_downlevel.obj
 0002:00003700       ??_C@_15EPELEGJA@?$AAk?$AAo@ 0000000180027700     libucrt:lcidtoname_downlevel.obj
 0002:00003708       ??_C@_15NDDHIMN@?$AAn?$AAl@ 0000000180027708     libucrt:lcidtoname_downlevel.obj
 0002:00003710       ??_C@_15BPIGNHCD@?$AAn?$AAo@ 0000000180027710     libucrt:lcidtoname_downlevel.obj
 0002:00003718       ??_C@_15DEOPBLCG@?$AAp?$AAl@ 0000000180027718     libucrt:lcidtoname_downlevel.obj
 0002:00003720       ??_C@_15KBECGEFG@?$AAp?$AAt@ 0000000180027720     libucrt:lcidtoname_downlevel.obj
 0002:00003728       ??_C@_15GLJCBFMD@?$AAr?$AAo@ 0000000180027728     libucrt:lcidtoname_downlevel.obj
 0002:00003730       ??_C@_15FEDGKCDI@?$AAr?$AAu@ 0000000180027730     libucrt:lcidtoname_downlevel.obj
 0002:00003738       ??_C@_15GLKMLLHM@?$AAh?$AAr@ 0000000180027738     libucrt:lcidtoname_downlevel.obj
 0002:00003740       ??_C@_15CPKMFBDB@?$AAs?$AAk@ 0000000180027740     libucrt:lcidtoname_downlevel.obj
 0002:00003748       ??_C@_15BAAIOGMK@?$AAs?$AAq@ 0000000180027748     libucrt:lcidtoname_downlevel.obj
 0002:00003750       ??_C@_15INNPNOHD@?$AAs?$AAv@ 0000000180027750     libucrt:lcidtoname_downlevel.obj
 0002:00003758       ??_C@_15CABMMOGH@?$AAt?$AAh@ 0000000180027758     libucrt:lcidtoname_downlevel.obj
 0002:00003760       ??_C@_15BPLIHJJM@?$AAt?$AAr@ 0000000180027760     libucrt:lcidtoname_downlevel.obj
 0002:00003768       ??_C@_15NEOEKKDJ@?$AAu?$AAr@ 0000000180027768     libucrt:lcidtoname_downlevel.obj
 0002:00003770       ??_C@_15NFICGAJK@?$AAi?$AAd@ 0000000180027770     libucrt:lcidtoname_downlevel.obj
 0002:00003778       ??_C@_15HPJPHDM@?$AAb?$AAe@ 0000000180027778     libucrt:lcidtoname_downlevel.obj
 0002:00003780       ??_C@_15LCHLGJII@?$AAs?$AAl@ 0000000180027780     libucrt:lcidtoname_downlevel.obj
 0002:00003788       ??_C@_15PCFJPHHO@?$AAe?$AAt@ 0000000180027788     libucrt:lcidtoname_downlevel.obj
 0002:00003790       ??_C@_15HPFPGODN@?$AAl?$AAv@ 0000000180027790     libucrt:lcidtoname_downlevel.obj
 0002:00003798       ??_C@_15NFFGKGLG@?$AAl?$AAt@ 0000000180027798     libucrt:lcidtoname_downlevel.obj
 0002:000037a0       ??_C@_15BDAKCCHN@?$AAf?$AAa@ 00000001800277a0     libucrt:lcidtoname_downlevel.obj
 0002:000037a8       ??_C@_15NFGIAIAJ@?$AAv?$AAi@ 00000001800277a8     libucrt:lcidtoname_downlevel.obj
 0002:000037b0       ??_C@_15LMKNDMHN@?$AAh?$AAy@ 00000001800277b0     libucrt:lcidtoname_downlevel.obj
 0002:000037b8       ??_C@_15IJBHMCFL@?$AAa?$AAz@ 00000001800277b8     libucrt:lcidtoname_downlevel.obj
 0002:000037c0       ??_C@_15EKOFJABL@?$AAe?$AAu@ 00000001800277c0     libucrt:lcidtoname_downlevel.obj
 0002:000037c8       ??_C@_15BGHADCNK@?$AAm?$AAk@ 00000001800277c8     libucrt:lcidtoname_downlevel.obj
 0002:000037d0       ??_C@_15JDNICKHM@?$AAa?$AAf@ 00000001800277d0     libucrt:lcidtoname_downlevel.obj
 0002:000037d8       ??_C@_15KPJEDBKD@?$AAk?$AAa@ 00000001800277d8     libucrt:lcidtoname_downlevel.obj
 0002:000037e0       ??_C@_15PDNFFFEO@?$AAf?$AAo@ 00000001800277e0     libucrt:lcidtoname_downlevel.obj
 0002:000037e8       ??_C@_15OMLEGLOC@?$AAh?$AAi@ 00000001800277e8     libucrt:lcidtoname_downlevel.obj
 0002:000037f0       ??_C@_15IDNNENKK@?$AAm?$AAs@ 00000001800277f0     libucrt:lcidtoname_downlevel.obj
 0002:000037f8       ??_C@_15MACJNBMH@?$AAk?$AAk@ 00000001800277f8     libucrt:lcidtoname_downlevel.obj
 0002:00003800       ??_C@_15DKDJEOND@?$AAk?$AAy@ 0000000180027800     libucrt:lcidtoname_downlevel.obj
 0002:00003808       ??_C@_15DFGDLJBG@?$AAs?$AAw@ 0000000180027808     libucrt:lcidtoname_downlevel.obj
 0002:00003810       ??_C@_15BBFAICNG@?$AAu?$AAz@ 0000000180027810     libucrt:lcidtoname_downlevel.obj
 0002:00003818       ??_C@_15DKNDCGEA@?$AAt?$AAt@ 0000000180027818     libucrt:lcidtoname_downlevel.obj
 0002:00003820       ??_C@_15MGIFMDPL@?$AAp?$AAa@ 0000000180027820     libucrt:lcidtoname_downlevel.obj
 0002:00003828       ??_C@_15HCNDBBA@?$AAg?$AAu@ 0000000180027828     libucrt:lcidtoname_downlevel.obj
 0002:00003830       ??_C@_15FNBEIBON@?$AAt?$AAa@ 0000000180027830     libucrt:lcidtoname_downlevel.obj
 0002:00003838       ??_C@_15NCHGBGLK@?$AAt?$AAe@ 0000000180027838     libucrt:lcidtoname_downlevel.obj
 0002:00003840       ??_C@_15PHPHCBPF@?$AAk?$AAn@ 0000000180027840     libucrt:lcidtoname_downlevel.obj
 0002:00003848       ??_C@_15DLGBCKMP@?$AAm?$AAr@ 0000000180027848     libucrt:lcidtoname_downlevel.obj
 0002:00003850       ??_C@_15EABBLBFF@?$AAs?$AAa@ 0000000180027850     libucrt:lcidtoname_downlevel.obj
 0002:00003858       ??_C@_15CBKOMCOI@?$AAm?$AAn@ 0000000180027858     libucrt:lcidtoname_downlevel.obj
 0002:00003860       ??_C@_15CKDMCJAF@?$AAg?$AAl@ 0000000180027860     libucrt:lcidtoname_downlevel.obj
 0002:00003868       ??_C@_17CNJFBPG@?$AAk?$AAo?$AAk@ 0000000180027868     libucrt:lcidtoname_downlevel.obj
 0002:00003870       ??_C@_17FFBJICPL@?$AAs?$AAy?$AAr@ 0000000180027870     libucrt:lcidtoname_downlevel.obj
 0002:00003878       ??_C@_17KPNDCPAF@?$AAd?$AAi?$AAv@ 0000000180027878     libucrt:lcidtoname_downlevel.obj
 0002:00003880       ??_C@_11LOCGONAA@@         0000000180027880     libucrt:lcidtoname_downlevel.obj
 0002:00003888       ??_C@_1M@OKAHONE@?$AAa?$AAr?$AA?9?$AAS?$AAA@ 0000000180027888     libucrt:lcidtoname_downlevel.obj
 0002:00003898       ??_C@_1M@FFFIGIGK@?$AAb?$AAg?$AA?9?$AAB?$AAG@ 0000000180027898     libucrt:lcidtoname_downlevel.obj
 0002:000038a8       ??_C@_1M@BJNKEDC@?$AAc?$AAa?$AA?9?$AAE?$AAS@ 00000001800278a8     libucrt:lcidtoname_downlevel.obj
 0002:000038b8       ??_C@_1M@IJJHFJHA@?$AAc?$AAs?$AA?9?$AAC?$AAZ@ 00000001800278b8     libucrt:lcidtoname_downlevel.obj
 0002:000038c8       ??_C@_1M@CLPEOBGI@?$AAd?$AAa?$AA?9?$AAD?$AAK@ 00000001800278c8     libucrt:lcidtoname_downlevel.obj
 0002:000038d8       ??_C@_1M@MCMADGCB@?$AAd?$AAe?$AA?9?$AAD?$AAE@ 00000001800278d8     libucrt:lcidtoname_downlevel.obj
 0002:000038e8       ??_C@_1M@OOCKEMAM@?$AAe?$AAl?$AA?9?$AAG?$AAR@ 00000001800278e8     libucrt:lcidtoname_downlevel.obj
 0002:000038f8       ??_C@_1M@DDNJFGID@?$AAf?$AAi?$AA?9?$AAF?$AAI@ 00000001800278f8     libucrt:lcidtoname_downlevel.obj
 0002:00003908       ??_C@_1M@GLIPPMAC@?$AAf?$AAr?$AA?9?$AAF?$AAR@ 0000000180027908     libucrt:lcidtoname_downlevel.obj
 0002:00003918       ??_C@_1M@GFMCHPE@?$AAh?$AAe?$AA?9?$AAI?$AAL@ 0000000180027918     libucrt:lcidtoname_downlevel.obj
 0002:00003928       ??_C@_1M@MHLPGNKM@?$AAh?$AAu?$AA?9?$AAH?$AAU@ 0000000180027928     libucrt:lcidtoname_downlevel.obj
 0002:00003938       ??_C@_1M@LPDDNNPN@?$AAi?$AAs?$AA?9?$AAI?$AAS@ 0000000180027938     libucrt:lcidtoname_downlevel.obj
 0002:00003948       ??_C@_1M@MADIPODN@?$AAi?$AAt?$AA?9?$AAI?$AAT@ 0000000180027948     libucrt:lcidtoname_downlevel.obj
 0002:00003958       ??_C@_1M@IHBJJGG@?$AAn?$AAl?$AA?9?$AAN?$AAL@ 0000000180027958     libucrt:lcidtoname_downlevel.obj
 0002:00003968       ??_C@_1M@EANAGDL@?$AAn?$AAb?$AA?9?$AAN?$AAO@ 0000000180027968     libucrt:lcidtoname_downlevel.obj
 0002:00003978       ??_C@_1M@NEIEMEGP@?$AAp?$AAl?$AA?9?$AAP?$AAL@ 0000000180027978     libucrt:lcidtoname_downlevel.obj
 0002:00003988       ??_C@_1M@BOCFIGEP@?$AAp?$AAt?$AA?9?$AAB?$AAR@ 0000000180027988     libucrt:lcidtoname_downlevel.obj
 0002:00003998       ??_C@_1M@IMPFOPBG@?$AAr?$AAo?$AA?9?$AAR?$AAO@ 0000000180027998     libucrt:lcidtoname_downlevel.obj
 0002:000039a8       ??_C@_1M@IDNNEJMM@?$AAr?$AAu?$AA?9?$AAR?$AAU@ 00000001800279a8     libucrt:lcidtoname_downlevel.obj
 0002:000039b8       ??_C@_1M@LILEEOGM@?$AAh?$AAr?$AA?9?$AAH?$AAR@ 00000001800279b8     libucrt:lcidtoname_downlevel.obj
 0002:000039c8       ??_C@_1M@FKIFEHPB@?$AAs?$AAk?$AA?9?$AAS?$AAK@ 00000001800279c8     libucrt:lcidtoname_downlevel.obj
 0002:000039d8       ??_C@_1M@LJMAMNPJ@?$AAs?$AAq?$AA?9?$AAA?$AAL@ 00000001800279d8     libucrt:lcidtoname_downlevel.obj
 0002:000039e8       ??_C@_1M@GIAKDKJK@?$AAs?$AAv?$AA?9?$AAS?$AAE@ 00000001800279e8     libucrt:lcidtoname_downlevel.obj
 0002:000039f8       ??_C@_1M@MKJKIKCL@?$AAt?$AAh?$AA?9?$AAT?$AAH@ 00000001800279f8     libucrt:lcidtoname_downlevel.obj
 0002:00003a08       ??_C@_1M@MFLCCMPB@?$AAt?$AAr?$AA?9?$AAT?$AAR@ 0000000180027a08     libucrt:lcidtoname_downlevel.obj
 0002:00003a18       ??_C@_1M@OIJHDKJN@?$AAu?$AAr?$AA?9?$AAP?$AAK@ 0000000180027a18     libucrt:lcidtoname_downlevel.obj
 0002:00003a28       ??_C@_1M@LHIPCIEK@?$AAi?$AAd?$AA?9?$AAI?$AAD@ 0000000180027a28     libucrt:lcidtoname_downlevel.obj
 0002:00003a38       ??_C@_1M@MFMOBGI@?$AAu?$AAk?$AA?9?$AAU?$AAA@ 0000000180027a38     libucrt:lcidtoname_downlevel.obj
 0002:00003a48       ??_C@_1M@OBGLJIPL@?$AAb?$AAe?$AA?9?$AAB?$AAY@ 0000000180027a48     libucrt:lcidtoname_downlevel.obj
 0002:00003a58       ??_C@_1M@BCFAJEAD@?$AAs?$AAl?$AA?9?$AAS?$AAI@ 0000000180027a58     libucrt:lcidtoname_downlevel.obj
 0002:00003a68       ??_C@_1M@FKFFEDDN@?$AAe?$AAt?$AA?9?$AAE?$AAE@ 0000000180027a68     libucrt:lcidtoname_downlevel.obj
 0002:00003a78       ??_C@_1M@KGKKAACI@?$AAl?$AAv?$AA?9?$AAL?$AAV@ 0000000180027a78     libucrt:lcidtoname_downlevel.obj
 0002:00003a88       ??_C@_1M@IFGBIJO@?$AAl?$AAt?$AA?9?$AAL?$AAT@ 0000000180027a88     libucrt:lcidtoname_downlevel.obj
 0002:00003a98       ??_C@_1M@FGEAHEDM@?$AAf?$AAa?$AA?9?$AAI?$AAR@ 0000000180027a98     libucrt:lcidtoname_downlevel.obj
 0002:00003aa8       ??_C@_1M@KBMAIBFN@?$AAv?$AAi?$AA?9?$AAV?$AAN@ 0000000180027aa8     libucrt:lcidtoname_downlevel.obj
 0002:00003ab8       ??_C@_1M@GPCBKDJK@?$AAh?$AAy?$AA?9?$AAA?$AAM@ 0000000180027ab8     libucrt:lcidtoname_downlevel.obj
 0002:00003ac8       ??_C@_1BG@BECMDDJB@?$AAa?$AAz?$AA?9?$AAA?$AAZ?$AA?9?$AAL?$AAa?$AAt?$AAn@ 0000000180027ac8     libucrt:lcidtoname_downlevel.obj
 0002:00003ae0       ??_C@_1M@MAOFCAEA@?$AAe?$AAu?$AA?9?$AAE?$AAS@ 0000000180027ae0     libucrt:lcidtoname_downlevel.obj
 0002:00003af0       ??_C@_1M@IGHABKPI@?$AAm?$AAk?$AA?9?$AAM?$AAK@ 0000000180027af0     libucrt:lcidtoname_downlevel.obj
 0002:00003b00       ??_C@_1M@IAIGNEJG@?$AAt?$AAn?$AA?9?$AAZ?$AAA@ 0000000180027b00     libucrt:lcidtoname_downlevel.obj
 0002:00003b10       ??_C@_1M@IIJCOJFA@?$AAx?$AAh?$AA?9?$AAZ?$AAA@ 0000000180027b10     libucrt:lcidtoname_downlevel.obj
 0002:00003b20       ??_C@_1M@LGPJHNJH@?$AAz?$AAu?$AA?9?$AAZ?$AAA@ 0000000180027b20     libucrt:lcidtoname_downlevel.obj
 0002:00003b30       ??_C@_1M@HOKAOIO@?$AAa?$AAf?$AA?9?$AAZ?$AAA@ 0000000180027b30     libucrt:lcidtoname_downlevel.obj
 0002:00003b40       ??_C@_1M@DPCLHLIE@?$AAk?$AAa?$AA?9?$AAG?$AAE@ 0000000180027b40     libucrt:lcidtoname_downlevel.obj
 0002:00003b50       ??_C@_1M@BLKMHJBI@?$AAf?$AAo?$AA?9?$AAF?$AAO@ 0000000180027b50     libucrt:lcidtoname_downlevel.obj
 0002:00003b60       ??_C@_1M@LGGJAPPB@?$AAh?$AAi?$AA?9?$AAI?$AAN@ 0000000180027b60     libucrt:lcidtoname_downlevel.obj
 0002:00003b70       ??_C@_1M@FIKPIHFE@?$AAm?$AAt?$AA?9?$AAM?$AAT@ 0000000180027b70     libucrt:lcidtoname_downlevel.obj
 0002:00003b80       ??_C@_1M@HEGGPBFA@?$AAs?$AAe?$AA?9?$AAN?$AAO@ 0000000180027b80     libucrt:lcidtoname_downlevel.obj
 0002:00003b90       ??_C@_1M@EIBJEEPA@?$AAm?$AAs?$AA?9?$AAM?$AAY@ 0000000180027b90     libucrt:lcidtoname_downlevel.obj
 0002:00003ba0       ??_C@_1M@FHLBGMPP@?$AAk?$AAk?$AA?9?$AAK?$AAZ@ 0000000180027ba0     libucrt:lcidtoname_downlevel.obj
 0002:00003bb0       ??_C@_1M@NGJJLCGI@?$AAk?$AAy?$AA?9?$AAK?$AAG@ 0000000180027bb0     libucrt:lcidtoname_downlevel.obj
 0002:00003bc0       ??_C@_1M@GIENNBFC@?$AAs?$AAw?$AA?9?$AAK?$AAE@ 0000000180027bc0     libucrt:lcidtoname_downlevel.obj
 0002:00003bd0       ??_C@_1BG@NDGMJIMJ@?$AAu?$AAz?$AA?9?$AAU?$AAZ?$AA?9?$AAL?$AAa?$AAt?$AAn@ 0000000180027bd0     libucrt:lcidtoname_downlevel.obj
 0002:00003be8       ??_C@_1M@IDCCIHBC@?$AAt?$AAt?$AA?9?$AAR?$AAU@ 0000000180027be8     libucrt:lcidtoname_downlevel.obj
 0002:00003bf8       ??_C@_1M@LOICPMOJ@?$AAb?$AAn?$AA?9?$AAI?$AAN@ 0000000180027bf8     libucrt:lcidtoname_downlevel.obj
 0002:00003c08       ??_C@_1M@KPKKNEAH@?$AAp?$AAa?$AA?9?$AAI?$AAN@ 0000000180027c08     libucrt:lcidtoname_downlevel.obj
 0002:00003c18       ??_C@_1M@PJGPPBOG@?$AAg?$AAu?$AA?9?$AAI?$AAN@ 0000000180027c18     libucrt:lcidtoname_downlevel.obj
 0002:00003c28       ??_C@_1M@KMKMOPHI@?$AAt?$AAa?$AA?9?$AAI?$AAN@ 0000000180027c28     libucrt:lcidtoname_downlevel.obj
 0002:00003c38       ??_C@_1M@KFEHEPAC@?$AAt?$AAe?$AA?9?$AAI?$AAN@ 0000000180027c38     libucrt:lcidtoname_downlevel.obj
 0002:00003c48       ??_C@_1M@CDCLMGHI@?$AAk?$AAn?$AA?9?$AAI?$AAN@ 0000000180027c48     libucrt:lcidtoname_downlevel.obj
 0002:00003c58       ??_C@_1M@MIODLDKF@?$AAm?$AAl?$AA?9?$AAI?$AAN@ 0000000180027c58     libucrt:lcidtoname_downlevel.obj
 0002:00003c68       ??_C@_1M@PBIEACPO@?$AAm?$AAr?$AA?9?$AAI?$AAN@ 0000000180027c68     libucrt:lcidtoname_downlevel.obj
 0002:00003c78       ??_C@_1M@NIDEAGPH@?$AAs?$AAa?$AA?9?$AAI?$AAN@ 0000000180027c78     libucrt:lcidtoname_downlevel.obj
 0002:00003c88       ??_C@_1M@FHIHCBIO@?$AAm?$AAn?$AA?9?$AAM?$AAN@ 0000000180027c88     libucrt:lcidtoname_downlevel.obj
 0002:00003c98       ??_C@_1M@JAIJPENP@?$AAc?$AAy?$AA?9?$AAG?$AAB@ 0000000180027c98     libucrt:lcidtoname_downlevel.obj
 0002:00003ca8       ??_C@_1M@PHGFBEPN@?$AAg?$AAl?$AA?9?$AAE?$AAS@ 0000000180027ca8     libucrt:lcidtoname_downlevel.obj
 0002:00003cb8       ??_C@_1O@KPIPDNCP@?$AAk?$AAo?$AAk?$AA?9?$AAI?$AAN@ 0000000180027cb8     libucrt:lcidtoname_downlevel.obj
 0002:00003cc8       ??_C@_1O@KNHJLDJA@?$AAs?$AAy?$AAr?$AA?9?$AAS?$AAY@ 0000000180027cc8     libucrt:lcidtoname_downlevel.obj
 0002:00003cd8       ??_C@_1O@MKEKBLAH@?$AAd?$AAi?$AAv?$AA?9?$AAM?$AAV@ 0000000180027cd8     libucrt:lcidtoname_downlevel.obj
 0002:00003ce8       ??_C@_1O@OHDCKDDF@?$AAq?$AAu?$AAz?$AA?9?$AAB?$AAO@ 0000000180027ce8     libucrt:lcidtoname_downlevel.obj
 0002:00003cf8       ??_C@_1M@LEPJNLFD@?$AAn?$AAs?$AA?9?$AAZ?$AAA@ 0000000180027cf8     libucrt:lcidtoname_downlevel.obj
 0002:00003d08       ??_C@_1M@OMLEIIJB@?$AAm?$AAi?$AA?9?$AAN?$AAZ@ 0000000180027d08     libucrt:lcidtoname_downlevel.obj
 0002:00003d18       ??_C@_1M@PMPEAILG@?$AAa?$AAr?$AA?9?$AAI?$AAQ@ 0000000180027d18     libucrt:lcidtoname_downlevel.obj
 0002:00003d28       ??_C@_1M@CNKPNOEE@?$AAd?$AAe?$AA?9?$AAC?$AAH@ 0000000180027d28     libucrt:lcidtoname_downlevel.obj
 0002:00003d38       ??_C@_1M@LKMGMLKO@?$AAe?$AAn?$AA?9?$AAG?$AAB@ 0000000180027d38     libucrt:lcidtoname_downlevel.obj
 0002:00003d48       ??_C@_1M@PGKJFFGL@?$AAe?$AAs?$AA?9?$AAM?$AAX@ 0000000180027d48     libucrt:lcidtoname_downlevel.obj
 0002:00003d58       ??_C@_1M@DNNANBDC@?$AAf?$AAr?$AA?9?$AAB?$AAE@ 0000000180027d58     libucrt:lcidtoname_downlevel.obj
 0002:00003d68       ??_C@_1M@HLGMDFHM@?$AAi?$AAt?$AA?9?$AAC?$AAH@ 0000000180027d68     libucrt:lcidtoname_downlevel.obj
 0002:00003d78       ??_C@_1M@CLLBGJH@?$AAn?$AAl?$AA?9?$AAB?$AAE@ 0000000180027d78     libucrt:lcidtoname_downlevel.obj
 0002:00003d88       ??_C@_1M@BODBOGLF@?$AAn?$AAn?$AA?9?$AAN?$AAO@ 0000000180027d88     libucrt:lcidtoname_downlevel.obj
 0002:00003d98       ??_C@_1M@HFFAHKAD@?$AAp?$AAt?$AA?9?$AAP?$AAT@ 0000000180027d98     libucrt:lcidtoname_downlevel.obj
 0002:00003da8       ??_C@_1BG@LNOAKHIE@?$AAs?$AAr?$AA?9?$AAS?$AAP?$AA?9?$AAL?$AAa?$AAt?$AAn@ 0000000180027da8     libucrt:lcidtoname_downlevel.obj
 0002:00003dc0       ??_C@_1M@HBMHBGAK@?$AAs?$AAv?$AA?9?$AAF?$AAI@ 0000000180027dc0     libucrt:lcidtoname_downlevel.obj
 0002:00003dd0       ??_C@_1BG@DGCJGJBE@?$AAa?$AAz?$AA?9?$AAA?$AAZ?$AA?9?$AAC?$AAy?$AAr?$AAl@ 0000000180027dd0     libucrt:lcidtoname_downlevel.obj
 0002:00003de8       ??_C@_1M@KEJDAAHB@?$AAs?$AAe?$AA?9?$AAS?$AAE@ 0000000180027de8     libucrt:lcidtoname_downlevel.obj
 0002:00003df8       ??_C@_1M@HEIBJJAD@?$AAm?$AAs?$AA?9?$AAB?$AAN@ 0000000180027df8     libucrt:lcidtoname_downlevel.obj
 0002:00003e08       ??_C@_1BG@PBGJMCEM@?$AAu?$AAz?$AA?9?$AAU?$AAZ?$AA?9?$AAC?$AAy?$AAr?$AAl@ 0000000180027e08     libucrt:lcidtoname_downlevel.obj
 0002:00003e20       ??_C@_1O@LAOBCMDF@?$AAq?$AAu?$AAz?$AA?9?$AAE?$AAC@ 0000000180027e20     libucrt:lcidtoname_downlevel.obj
 0002:00003e30       ??_C@_1M@POEEMAIO@?$AAa?$AAr?$AA?9?$AAE?$AAG@ 0000000180027e30     libucrt:lcidtoname_downlevel.obj
 0002:00003e40       ??_C@_1M@EFAKDEDL@?$AAz?$AAh?$AA?9?$AAH?$AAK@ 0000000180027e40     libucrt:lcidtoname_downlevel.obj
 0002:00003e50       ??_C@_1M@HKKIJHGI@?$AAd?$AAe?$AA?9?$AAA?$AAT@ 0000000180027e50     libucrt:lcidtoname_downlevel.obj
 0002:00003e60       ??_C@_1M@KBFBEHJF@?$AAe?$AAn?$AA?9?$AAA?$AAU@ 0000000180027e60     libucrt:lcidtoname_downlevel.obj
 0002:00003e70       ??_C@_1M@MNPLFAAH@?$AAe?$AAs?$AA?9?$AAE?$AAS@ 0000000180027e70     libucrt:lcidtoname_downlevel.obj
 0002:00003e80       ??_C@_1M@HJOOJFMA@?$AAf?$AAr?$AA?9?$AAC?$AAA@ 0000000180027e80     libucrt:lcidtoname_downlevel.obj
 0002:00003e90       ??_C@_1BG@JPOFPNAB@?$AAs?$AAr?$AA?9?$AAS?$AAP?$AA?9?$AAC?$AAy?$AAr?$AAl@ 0000000180027e90     libucrt:lcidtoname_downlevel.obj
 0002:00003ea8       ??_C@_1M@LNFOCMOB@?$AAs?$AAe?$AA?9?$AAF?$AAI@ 0000000180027ea8     libucrt:lcidtoname_downlevel.obj
 0002:00003eb8       ??_C@_1O@MGJBOAMB@?$AAq?$AAu?$AAz?$AA?9?$AAP?$AAE@ 0000000180027eb8     libucrt:lcidtoname_downlevel.obj
 0002:00003ec8       ??_C@_1M@GJINLBOK@?$AAa?$AAr?$AA?9?$AAL?$AAY@ 0000000180027ec8     libucrt:lcidtoname_downlevel.obj
 0002:00003ed8       ??_C@_1M@GGMNHJNL@?$AAz?$AAh?$AA?9?$AAS?$AAG@ 0000000180027ed8     libucrt:lcidtoname_downlevel.obj
 0002:00003ee8       ??_C@_1M@HOIKODND@?$AAd?$AAe?$AA?9?$AAL?$AAU@ 0000000180027ee8     libucrt:lcidtoname_downlevel.obj
 0002:00003ef8       ??_C@_1M@DDOCCGFG@?$AAe?$AAn?$AA?9?$AAC?$AAA@ 0000000180027ef8     libucrt:lcidtoname_downlevel.obj
 0002:00003f08       ??_C@_1M@BNOEMJLF@?$AAe?$AAs?$AA?9?$AAG?$AAT@ 0000000180027f08     libucrt:lcidtoname_downlevel.obj
 0002:00003f18       ??_C@_1M@EOGNKEK@?$AAf?$AAr?$AA?9?$AAC?$AAH@ 0000000180027f18     libucrt:lcidtoname_downlevel.obj
 0002:00003f28       ??_C@_1M@FLIDJFHL@?$AAh?$AAr?$AA?9?$AAB?$AAA@ 0000000180027f28     libucrt:lcidtoname_downlevel.obj
 0002:00003f38       ??_C@_1O@FMCELNAJ@?$AAs?$AAm?$AAj?$AA?9?$AAN?$AAO@ 0000000180027f38     libucrt:lcidtoname_downlevel.obj
 0002:00003f48       ??_C@_1M@JHGLJMGJ@?$AAa?$AAr?$AA?9?$AAD?$AAZ@ 0000000180027f48     libucrt:lcidtoname_downlevel.obj
 0002:00003f58       ??_C@_1M@JKKFDCNP@?$AAz?$AAh?$AA?9?$AAM?$AAO@ 0000000180027f58     libucrt:lcidtoname_downlevel.obj
 0002:00003f68       ??_C@_1M@GEEFALPE@?$AAd?$AAe?$AA?9?$AAL?$AAI@ 0000000180027f68     libucrt:lcidtoname_downlevel.obj
 0002:00003f78       ??_C@_1M@IGEOFBG@?$AAe?$AAn?$AA?9?$AAN?$AAZ@ 0000000180027f78     libucrt:lcidtoname_downlevel.obj
 0002:00003f88       ??_C@_1M@KDBONEHP@?$AAe?$AAs?$AA?9?$AAC?$AAR@ 0000000180027f88     libucrt:lcidtoname_downlevel.obj
 0002:00003f98       ??_C@_1M@FHMDOHNN@?$AAf?$AAr?$AA?9?$AAL?$AAU@ 0000000180027f98     libucrt:lcidtoname_downlevel.obj
 0002:00003fa8       ??_C@_1BG@NFKKMAFG@?$AAb?$AAs?$AA?9?$AAB?$AAA?$AA?9?$AAL?$AAa?$AAt?$AAn@ 0000000180027fa8     libucrt:lcidtoname_downlevel.obj
 0002:00003fc0       ??_C@_1O@IMNBEMCI@?$AAs?$AAm?$AAj?$AA?9?$AAS?$AAE@ 0000000180027fc0     libucrt:lcidtoname_downlevel.obj
 0002:00003fd0       ??_C@_1M@DHHMBNDP@?$AAa?$AAr?$AA?9?$AAM?$AAA@ 0000000180027fd0     libucrt:lcidtoname_downlevel.obj
 0002:00003fe0       ??_C@_1M@BNBLJCGH@?$AAe?$AAn?$AA?9?$AAI?$AAE@ 0000000180027fe0     libucrt:lcidtoname_downlevel.obj
 0002:00003ff0       ??_C@_1M@GEPAFMDL@?$AAe?$AAs?$AA?9?$AAP?$AAA@ 0000000180027ff0     libucrt:lcidtoname_downlevel.obj
 0002:00004000       ??_C@_1M@OJONDMDL@?$AAf?$AAr?$AA?9?$AAM?$AAC@ 0000000180028000     libucrt:lcidtoname_downlevel.obj
 0002:00004010       ??_C@_1BG@OBCNFJB@?$AAs?$AAr?$AA?9?$AAB?$AAA?$AA?9?$AAL?$AAa?$AAt?$AAn@ 0000000180028010     libucrt:lcidtoname_downlevel.obj
 0002:00004028       ??_C@_1O@KEMEEGPO@?$AAs?$AAm?$AAa?$AA?9?$AAN?$AAO@ 0000000180028028     libucrt:lcidtoname_downlevel.obj
 0002:00004038       ??_C@_1M@ELMGFODK@?$AAa?$AAr?$AA?9?$AAT?$AAN@ 0000000180028038     libucrt:lcidtoname_downlevel.obj
 0002:00004048       ??_C@_1M@BHDLHFAF@?$AAe?$AAn?$AA?9?$AAZ?$AAA@ 0000000180028048     libucrt:lcidtoname_downlevel.obj
 0002:00004058       ??_C@_1M@BMGIGLIF@?$AAe?$AAs?$AA?9?$AAD?$AAO@ 0000000180028058     libucrt:lcidtoname_downlevel.obj
 0002:00004068       ??_C@_1BG@CMBHIPBE@?$AAs?$AAr?$AA?9?$AAB?$AAA?$AA?9?$AAC?$AAy?$AAr?$AAl@ 0000000180028068     libucrt:lcidtoname_downlevel.obj
 0002:00004080       ??_C@_1O@HEDBLHNP@?$AAs?$AAm?$AAa?$AA?9?$AAS?$AAE@ 0000000180028080     libucrt:lcidtoname_downlevel.obj
 0002:00004090       ??_C@_1M@DAGCADIM@?$AAa?$AAr?$AA?9?$AAO?$AAM@ 0000000180028090     libucrt:lcidtoname_downlevel.obj
 0002:000040a0       ??_C@_1M@FODLMICG@?$AAe?$AAn?$AA?9?$AAJ?$AAM@ 00000001800280a0     libucrt:lcidtoname_downlevel.obj
 0002:000040b0       ??_C@_1M@DNMLCIHB@?$AAe?$AAs?$AA?9?$AAV?$AAE@ 00000001800280b0     libucrt:lcidtoname_downlevel.obj
 0002:000040c0       ??_C@_1O@EOKHMKJK@?$AAs?$AAm?$AAs?$AA?9?$AAF?$AAI@ 00000001800280c0     libucrt:lcidtoname_downlevel.obj
 0002:000040d0       ??_C@_1M@CAFJMKOF@?$AAa?$AAr?$AA?9?$AAY?$AAE@ 00000001800280d0     libucrt:lcidtoname_downlevel.obj
 0002:000040e0       ??_C@_1M@CBFHIJLI@?$AAe?$AAn?$AA?9?$AAC?$AAB@ 00000001800280e0     libucrt:lcidtoname_downlevel.obj
 0002:000040f0       ??_C@_1M@BGNFLDN@?$AAe?$AAs?$AA?9?$AAC?$AAO@ 00000001800280f0     libucrt:lcidtoname_downlevel.obj
 0002:00004100       ??_C@_1O@JMPHMAMC@?$AAs?$AAm?$AAn?$AA?9?$AAF?$AAI@ 0000000180028100     libucrt:lcidtoname_downlevel.obj
 0002:00004110       ??_C@_1M@JLANABKE@?$AAa?$AAr?$AA?9?$AAS?$AAY@ 0000000180028110     libucrt:lcidtoname_downlevel.obj
 0002:00004120       ??_C@_1M@HPKGCFGN@?$AAe?$AAn?$AA?9?$AAB?$AAZ@ 0000000180028120     libucrt:lcidtoname_downlevel.obj
 0002:00004130       ??_C@_1M@OLJCMLGM@?$AAe?$AAs?$AA?9?$AAP?$AAE@ 0000000180028130     libucrt:lcidtoname_downlevel.obj
 0002:00004140       ??_C@_1M@MKKGFKLE@?$AAa?$AAr?$AA?9?$AAJ?$AAO@ 0000000180028140     libucrt:lcidtoname_downlevel.obj
 0002:00004150       ??_C@_1M@EKPGLDNI@?$AAe?$AAn?$AA?9?$AAT?$AAT@ 0000000180028150     libucrt:lcidtoname_downlevel.obj
 0002:00004160       ??_C@_1M@OONGHFHE@?$AAe?$AAs?$AA?9?$AAA?$AAR@ 0000000180028160     libucrt:lcidtoname_downlevel.obj
 0002:00004170       ??_C@_1M@OOJFGBHE@?$AAa?$AAr?$AA?9?$AAL?$AAB@ 0000000180028170     libucrt:lcidtoname_downlevel.obj
 0002:00004180       ??_C@_1M@GCEJHNEG@?$AAe?$AAn?$AA?9?$AAZ?$AAW@ 0000000180028180     libucrt:lcidtoname_downlevel.obj
 0002:00004190       ??_C@_1M@JNOCAHJI@?$AAe?$AAs?$AA?9?$AAE?$AAC@ 0000000180028190     libucrt:lcidtoname_downlevel.obj
 0002:000041a0       ??_C@_1M@JEFHPGGB@?$AAa?$AAr?$AA?9?$AAK?$AAW@ 00000001800281a0     libucrt:lcidtoname_downlevel.obj
 0002:000041b0       ??_C@_1M@MLKIBJOJ@?$AAe?$AAn?$AA?9?$AAP?$AAH@ 00000001800281b0     libucrt:lcidtoname_downlevel.obj
 0002:000041c0       ??_C@_1M@BDNIPEND@?$AAe?$AAs?$AA?9?$AAC?$AAL@ 00000001800281c0     libucrt:lcidtoname_downlevel.obj
 0002:000041d0       ??_C@_1M@MPNMEKBD@?$AAa?$AAr?$AA?9?$AAA?$AAE@ 00000001800281d0     libucrt:lcidtoname_downlevel.obj
 0002:000041e0       ??_C@_1M@KBJALCPI@?$AAe?$AAs?$AA?9?$AAU?$AAY@ 00000001800281e0     libucrt:lcidtoname_downlevel.obj
 0002:000041f0       ??_C@_1M@LLCCOAGA@?$AAa?$AAr?$AA?9?$AAB?$AAH@ 00000001800281f0     libucrt:lcidtoname_downlevel.obj
 0002:00004200       ??_C@_1M@PBFNCDEL@?$AAe?$AAs?$AA?9?$AAP?$AAY@ 0000000180028200     libucrt:lcidtoname_downlevel.obj
 0002:00004210       ??_C@_1M@EDGINPNP@?$AAa?$AAr?$AA?9?$AAQ?$AAA@ 0000000180028210     libucrt:lcidtoname_downlevel.obj
 0002:00004220       ??_C@_1M@MKDBIIJI@?$AAe?$AAs?$AA?9?$AAB?$AAO@ 0000000180028220     libucrt:lcidtoname_downlevel.obj
 0002:00004230       ??_C@_1M@CPKKEBLD@?$AAe?$AAs?$AA?9?$AAS?$AAV@ 0000000180028230     libucrt:lcidtoname_downlevel.obj
 0002:00004240       ??_C@_1M@NDBGMMJL@?$AAe?$AAs?$AA?9?$AAH?$AAN@ 0000000180028240     libucrt:lcidtoname_downlevel.obj
 0002:00004250       ??_C@_1M@JIJIBHDP@?$AAe?$AAs?$AA?9?$AAN?$AAI@ 0000000180028250     libucrt:lcidtoname_downlevel.obj
 0002:00004260       ??_C@_1M@CGFMKEEK@?$AAe?$AAs?$AA?9?$AAP?$AAR@ 0000000180028260     libucrt:lcidtoname_downlevel.obj
 0002:00004270       ??_C@_1O@ICJHKIIK@?$AAz?$AAh?$AA?9?$AAC?$AAH?$AAT@ 0000000180028270     libucrt:lcidtoname_downlevel.obj
 0002:00004280       ??_C@_15CLNEJCE@?$AAs?$AAr@ 0000000180028280     libucrt:lcidtoname_downlevel.obj
 0002:000050d0       ??_C@_1M@KAHEKEIG@?$AAa?$AAf?$AA?9?$AAz?$AAa@ 00000001800290d0     libucrt:lcidtoname_downlevel.obj
 0002:000050e0       ??_C@_1M@GIECOABL@?$AAa?$AAr?$AA?9?$AAa?$AAe@ 00000001800290e0     libucrt:lcidtoname_downlevel.obj
 0002:000050f0       ??_C@_1M@BMLMEKGI@?$AAa?$AAr?$AA?9?$AAb?$AAh@ 00000001800290f0     libucrt:lcidtoname_downlevel.obj
 0002:00005100       ??_C@_1M@DAPFDGGB@?$AAa?$AAr?$AA?9?$AAd?$AAz@ 0000000180029100     libucrt:lcidtoname_downlevel.obj
 0002:00005110       ??_C@_1M@FJNKGKIG@?$AAa?$AAr?$AA?9?$AAe?$AAg@ 0000000180029110     libucrt:lcidtoname_downlevel.obj
 0002:00005120       ??_C@_1M@FLGKKCLO@?$AAa?$AAr?$AA?9?$AAi?$AAq@ 0000000180029120     libucrt:lcidtoname_downlevel.obj
 0002:00005130       ??_C@_1M@GNDIPALM@?$AAa?$AAr?$AA?9?$AAj?$AAo@ 0000000180029130     libucrt:lcidtoname_downlevel.obj
 0002:00005140       ??_C@_1M@DDMJFMGJ@?$AAa?$AAr?$AA?9?$AAk?$AAw@ 0000000180029140     libucrt:lcidtoname_downlevel.obj
 0002:00005150       ??_C@_1M@EJALMLHM@?$AAa?$AAr?$AA?9?$AAl?$AAb@ 0000000180029150     libucrt:lcidtoname_downlevel.obj
 0002:00005160       ??_C@_1M@MOBDBLOC@?$AAa?$AAr?$AA?9?$AAl?$AAy@ 0000000180029160     libucrt:lcidtoname_downlevel.obj
 0002:00005170       ??_C@_1M@JAOCLHDH@?$AAa?$AAr?$AA?9?$AAm?$AAa@ 0000000180029170     libucrt:lcidtoname_downlevel.obj
 0002:00005180       ??_C@_1M@JHPMKJIE@?$AAa?$AAr?$AA?9?$AAo?$AAm@ 0000000180029180     libucrt:lcidtoname_downlevel.obj
 0002:00005190       ??_C@_1M@OEPGHFNH@?$AAa?$AAr?$AA?9?$AAq?$AAa@ 0000000180029190     libucrt:lcidtoname_downlevel.obj
 0002:000051a0       ??_C@_1M@KJDONENM@?$AAa?$AAr?$AA?9?$AAs?$AAa@ 00000001800291a0     libucrt:lcidtoname_downlevel.obj
 0002:000051b0       ??_C@_1M@DMJDKLKM@?$AAa?$AAr?$AA?9?$AAs?$AAy@ 00000001800291b0     libucrt:lcidtoname_downlevel.obj
 0002:000051c0       ??_C@_1M@OMFIPEDC@?$AAa?$AAr?$AA?9?$AAt?$AAn@ 00000001800291c0     libucrt:lcidtoname_downlevel.obj
 0002:000051d0       ??_C@_1M@IHMHGAON@?$AAa?$AAr?$AA?9?$AAy?$AAe@ 00000001800291d0     libucrt:lcidtoname_downlevel.obj
 0002:000051e0       ??_C@_1BG@KDCPGJGB@?$AAa?$AAz?$AA?9?$AAa?$AAz?$AA?9?$AAc?$AAy?$AAr?$AAl@ 00000001800291e0     libucrt:lcidtoname_downlevel.obj
 0002:000051f8       ??_C@_1BG@IBCKDDOE@?$AAa?$AAz?$AA?9?$AAa?$AAz?$AA?9?$AAl?$AAa?$AAt?$AAn@ 00000001800291f8     libucrt:lcidtoname_downlevel.obj
 0002:00005210       ??_C@_1M@EGPFDCPD@?$AAb?$AAe?$AA?9?$AAb?$AAy@ 0000000180029210     libucrt:lcidtoname_downlevel.obj
 0002:00005220       ??_C@_1M@PCMGMCGC@?$AAb?$AAg?$AA?9?$AAb?$AAg@ 0000000180029220     libucrt:lcidtoname_downlevel.obj
 0002:00005230       ??_C@_1M@BJBMFGOB@?$AAb?$AAn?$AA?9?$AAi?$AAn@ 0000000180029230     libucrt:lcidtoname_downlevel.obj
 0002:00005240       ??_C@_1BG@EAKMMACD@?$AAb?$AAs?$AA?9?$AAb?$AAa?$AA?9?$AAl?$AAa?$AAt?$AAn@ 0000000180029240     libucrt:lcidtoname_downlevel.obj
 0002:00005258       ??_C@_1M@KGADAODK@?$AAc?$AAa?$AA?9?$AAe?$AAs@ 0000000180029258     libucrt:lcidtoname_downlevel.obj
 0002:00005268       ??_C@_1M@COAJPDHI@?$AAc?$AAs?$AA?9?$AAc?$AAz@ 0000000180029268     libucrt:lcidtoname_downlevel.obj
 0002:00005278       ??_C@_1M@DHBHFONH@?$AAc?$AAy?$AA?9?$AAg?$AAb@ 0000000180029278     libucrt:lcidtoname_downlevel.obj
 0002:00005288       ??_C@_1M@IMGKELGA@?$AAd?$AAa?$AA?9?$AAd?$AAk@ 0000000180029288     libucrt:lcidtoname_downlevel.obj
 0002:00005298       ??_C@_1M@NNDGDNGA@?$AAd?$AAe?$AA?9?$AAa?$AAt@ 0000000180029298     libucrt:lcidtoname_downlevel.obj
 0002:000052a8       ??_C@_1M@IKDBHEEM@?$AAd?$AAe?$AA?9?$AAc?$AAh@ 00000001800292a8     libucrt:lcidtoname_downlevel.obj
 0002:000052b8       ??_C@_1M@GFFOJMCJ@?$AAd?$AAe?$AA?9?$AAd?$AAe@ 00000001800292b8     libucrt:lcidtoname_downlevel.obj
 0002:000052c8       ??_C@_1M@MDNLKBPM@?$AAd?$AAe?$AA?9?$AAl?$AAi@ 00000001800292c8     libucrt:lcidtoname_downlevel.obj
 0002:000052d8       ??_C@_1M@NJBEEJNL@?$AAd?$AAe?$AA?9?$AAl?$AAu@ 00000001800292d8     libucrt:lcidtoname_downlevel.obj
 0002:000052e8       ??_C@_1O@GNNELBAP@?$AAd?$AAi?$AAv?$AA?9?$AAm?$AAv@ 00000001800292e8     libucrt:lcidtoname_downlevel.obj
 0002:000052f8       ??_C@_1M@EJLEOGAE@?$AAe?$AAl?$AA?9?$AAg?$AAr@ 00000001800292f8     libucrt:lcidtoname_downlevel.obj
 0002:00005308       ??_C@_1M@GMPONJN@?$AAe?$AAn?$AA?9?$AAa?$AAu@ 0000000180029308     libucrt:lcidtoname_downlevel.obj
 0002:00005318       ??_C@_1M@NIDIIPGF@?$AAe?$AAn?$AA?9?$AAb?$AAz@ 0000000180029318     libucrt:lcidtoname_downlevel.obj
 0002:00005328       ??_C@_1M@JEHMIMFO@?$AAe?$AAn?$AA?9?$AAc?$AAa@ 0000000180029328     libucrt:lcidtoname_downlevel.obj
 0002:00005338       ??_C@_1M@IGMJCDLA@?$AAe?$AAn?$AA?9?$AAc?$AAb@ 0000000180029338     libucrt:lcidtoname_downlevel.obj
 0002:00005348       ??_C@_1M@BNFIGBKG@?$AAe?$AAn?$AA?9?$AAg?$AAb@ 0000000180029348     libucrt:lcidtoname_downlevel.obj
 0002:00005358       ??_C@_1M@LKIFDIGP@?$AAe?$AAn?$AA?9?$AAi?$AAe@ 0000000180029358     libucrt:lcidtoname_downlevel.obj
 0002:00005368       ??_C@_1M@PJKFGCCO@?$AAe?$AAn?$AA?9?$AAj?$AAm@ 0000000180029368     libucrt:lcidtoname_downlevel.obj
 0002:00005378       ??_C@_1M@KPPKEPBO@?$AAe?$AAn?$AA?9?$AAn?$AAz@ 0000000180029378     libucrt:lcidtoname_downlevel.obj
 0002:00005388       ??_C@_1M@GMDGLDOB@?$AAe?$AAn?$AA?9?$AAp?$AAh@ 0000000180029388     libucrt:lcidtoname_downlevel.obj
 0002:00005398       ??_C@_1M@ONGIBJNA@?$AAe?$AAn?$AA?9?$AAt?$AAt@ 0000000180029398     libucrt:lcidtoname_downlevel.obj
 0002:000053a8       ??_C@_1M@LLODPCMM@?$AAe?$AAn?$AA?9?$AAu?$AAs@ 00000001800293a8     libucrt:lcidtoname_downlevel.obj
 0002:000053b8       ??_C@_1M@LAKFNPAN@?$AAe?$AAn?$AA?9?$AAz?$AAa@ 00000001800293b8     libucrt:lcidtoname_downlevel.obj
 0002:000053c8       ??_C@_1M@MFNHNHEO@?$AAe?$AAn?$AA?9?$AAz?$AAw@ 00000001800293c8     libucrt:lcidtoname_downlevel.obj
 0002:000053d8       ??_C@_1M@EJEINPHM@?$AAe?$AAs?$AA?9?$AAa?$AAr@ 00000001800293d8     libucrt:lcidtoname_downlevel.obj
 0002:000053e8       ??_C@_1M@GNKPCCJA@?$AAe?$AAs?$AA?9?$AAb?$AAo@ 00000001800293e8     libucrt:lcidtoname_downlevel.obj
 0002:000053f8       ??_C@_1M@LEEGFONL@?$AAe?$AAs?$AA?9?$AAc?$AAl@ 00000001800293f8     libucrt:lcidtoname_downlevel.obj
 0002:00005408       ??_C@_1M@KGPDPBDF@?$AAe?$AAs?$AA?9?$AAc?$AAo@ 0000000180029408     libucrt:lcidtoname_downlevel.obj
 0002:00005418       ??_C@_1M@EIAHOHH@?$AAe?$AAs?$AA?9?$AAc?$AAr@ 0000000180029418     libucrt:lcidtoname_downlevel.obj
 0002:00005428       ??_C@_1M@LLPGMBIN@?$AAe?$AAs?$AA?9?$AAd?$AAo@ 0000000180029428     libucrt:lcidtoname_downlevel.obj
 0002:00005438       ??_C@_1M@DKHMKNJA@?$AAe?$AAs?$AA?9?$AAe?$AAc@ 0000000180029438     libucrt:lcidtoname_downlevel.obj
 0002:00005448       ??_C@_1M@GKGFPKAP@?$AAe?$AAs?$AA?9?$AAe?$AAs@ 0000000180029448     libucrt:lcidtoname_downlevel.obj
 0002:00005458       ??_C@_1M@LKHKGDLN@?$AAe?$AAs?$AA?9?$AAg?$AAt@ 0000000180029458     libucrt:lcidtoname_downlevel.obj
 0002:00005468       ??_C@_1M@HEIIGGJD@?$AAe?$AAs?$AA?9?$AAh?$AAn@ 0000000180029468     libucrt:lcidtoname_downlevel.obj
 0002:00005478       ??_C@_1M@FBDHPPGD@?$AAe?$AAs?$AA?9?$AAm?$AAx@ 0000000180029478     libucrt:lcidtoname_downlevel.obj
 0002:00005488       ??_C@_1M@DPAGLNDH@?$AAe?$AAs?$AA?9?$AAn?$AAi@ 0000000180029488     libucrt:lcidtoname_downlevel.obj
 0002:00005498       ??_C@_1M@MDGOPGDD@?$AAe?$AAs?$AA?9?$AAp?$AAa@ 0000000180029498     libucrt:lcidtoname_downlevel.obj
 0002:000054a8       ??_C@_1M@EMAMGBGE@?$AAe?$AAs?$AA?9?$AAp?$AAe@ 00000001800294a8     libucrt:lcidtoname_downlevel.obj
 0002:000054b8       ??_C@_1M@IBMCAOEC@?$AAe?$AAs?$AA?9?$AAp?$AAr@ 00000001800294b8     libucrt:lcidtoname_downlevel.obj
 0002:000054c8       ??_C@_1M@FGMDIJED@?$AAe?$AAs?$AA?9?$AAp?$AAy@ 00000001800294c8     libucrt:lcidtoname_downlevel.obj
 0002:000054d8       ??_C@_1M@IIDEOLLL@?$AAe?$AAs?$AA?9?$AAs?$AAv@ 00000001800294d8     libucrt:lcidtoname_downlevel.obj
 0002:000054e8       ??_C@_1M@GAOBIPA@?$AAe?$AAs?$AA?9?$AAu?$AAy@ 00000001800294e8     libucrt:lcidtoname_downlevel.obj
 0002:000054f8       ??_C@_1M@JKFFICHJ@?$AAe?$AAs?$AA?9?$AAv?$AAe@ 00000001800294f8     libucrt:lcidtoname_downlevel.obj
 0002:00005508       ??_C@_1M@PNMLOJDF@?$AAe?$AAt?$AA?9?$AAe?$AAe@ 0000000180029508     libucrt:lcidtoname_downlevel.obj
 0002:00005518       ??_C@_1M@GHHLIKEI@?$AAe?$AAu?$AA?9?$AAe?$AAs@ 0000000180029518     libucrt:lcidtoname_downlevel.obj
 0002:00005528       ??_C@_1M@PBNONODE@?$AAf?$AAa?$AA?9?$AAi?$AAr@ 0000000180029528     libucrt:lcidtoname_downlevel.obj
 0002:00005538       ??_C@_1M@JEEHPMIL@?$AAf?$AAi?$AA?9?$AAf?$AAi@ 0000000180029538     libucrt:lcidtoname_downlevel.obj
 0002:00005548       ??_C@_1M@LMDCNDBA@?$AAf?$AAo?$AA?9?$AAf?$AAo@ 0000000180029548     libucrt:lcidtoname_downlevel.obj
 0002:00005558       ??_C@_1M@JKEOHLDK@?$AAf?$AAr?$AA?9?$AAb?$AAe@ 0000000180029558     libucrt:lcidtoname_downlevel.obj
 0002:00005568       ??_C@_1M@NOHADPMI@?$AAf?$AAr?$AA?9?$AAc?$AAa@ 0000000180029568     libucrt:lcidtoname_downlevel.obj
 0002:00005578       ??_C@_1M@KDHIHAEC@?$AAf?$AAr?$AA?9?$AAc?$AAh@ 0000000180029578     libucrt:lcidtoname_downlevel.obj
 0002:00005588       ??_C@_1M@MMBBFGAK@?$AAf?$AAr?$AA?9?$AAf?$AAr@ 0000000180029588     libucrt:lcidtoname_downlevel.obj
 0002:00005598       ??_C@_1M@PAFNENNF@?$AAf?$AAr?$AA?9?$AAl?$AAu@ 0000000180029598     libucrt:lcidtoname_downlevel.obj
 0002:000055a8       ??_C@_1M@EOHDJGDD@?$AAf?$AAr?$AA?9?$AAm?$AAc@ 00000001800295a8     libucrt:lcidtoname_downlevel.obj
 0002:000055b8       ??_C@_1M@FAPLLOPF@?$AAg?$AAl?$AA?9?$AAe?$AAs@ 00000001800295b8     libucrt:lcidtoname_downlevel.obj
 0002:000055c8       ??_C@_1M@FOPBFLOO@?$AAg?$AAu?$AA?9?$AAi?$AAn@ 00000001800295c8     libucrt:lcidtoname_downlevel.obj
 0002:000055d8       ??_C@_1M@KBMCINPM@?$AAh?$AAe?$AA?9?$AAi?$AAl@ 00000001800295d8     libucrt:lcidtoname_downlevel.obj
 0002:000055e8       ??_C@_1M@BBPHKFPJ@?$AAh?$AAi?$AA?9?$AAi?$AAn@ 00000001800295e8     libucrt:lcidtoname_downlevel.obj
 0002:000055f8       ??_C@_1M@PMBNDPHD@?$AAh?$AAr?$AA?9?$AAb?$AAa@ 00000001800295f8     libucrt:lcidtoname_downlevel.obj
 0002:00005608       ??_C@_1M@BPCKOEGE@?$AAh?$AAr?$AA?9?$AAh?$AAr@ 0000000180029608     libucrt:lcidtoname_downlevel.obj
 0002:00005618       ??_C@_1M@GACBMHKE@?$AAh?$AAu?$AA?9?$AAh?$AAu@ 0000000180029618     libucrt:lcidtoname_downlevel.obj
 0002:00005628       ??_C@_1M@MILPAJJC@?$AAh?$AAy?$AA?9?$AAa?$AAm@ 0000000180029628     libucrt:lcidtoname_downlevel.obj
 0002:00005638       ??_C@_1M@BABBICEC@?$AAi?$AAd?$AA?9?$AAi?$AAd@ 0000000180029638     libucrt:lcidtoname_downlevel.obj
 0002:00005648       ??_C@_1M@BIKNHHPF@?$AAi?$AAs?$AA?9?$AAi?$AAs@ 0000000180029648     libucrt:lcidtoname_downlevel.obj
 0002:00005658       ??_C@_1M@NMPCJPHE@?$AAi?$AAt?$AA?9?$AAc?$AAh@ 0000000180029658     libucrt:lcidtoname_downlevel.obj
 0002:00005668       ??_C@_1M@GHKGFEDF@?$AAi?$AAt?$AA?9?$AAi?$AAt@ 0000000180029668     libucrt:lcidtoname_downlevel.obj
 0002:00005678       ??_C@_1M@NIEJCJJA@?$AAj?$AAa?$AA?9?$AAj?$AAp@ 0000000180029678     libucrt:lcidtoname_downlevel.obj
 0002:00005688       ??_C@_1M@JILFNBIM@?$AAk?$AAa?$AA?9?$AAg?$AAe@ 0000000180029688     libucrt:lcidtoname_downlevel.obj
 0002:00005698       ??_C@_1M@PACPMGPH@?$AAk?$AAk?$AA?9?$AAk?$AAz@ 0000000180029698     libucrt:lcidtoname_downlevel.obj
 0002:000056a8       ??_C@_1M@IELFGMHA@?$AAk?$AAn?$AA?9?$AAi?$AAn@ 00000001800296a8     libucrt:lcidtoname_downlevel.obj
 0002:000056b8       ??_C@_1O@IBBJHCH@?$AAk?$AAo?$AAk?$AA?9?$AAi?$AAn@ 00000001800296b8     libucrt:lcidtoname_downlevel.obj
 0002:000056c8       ??_C@_1M@DMHAEOGC@?$AAk?$AAo?$AA?9?$AAk?$AAr@ 00000001800296c8     libucrt:lcidtoname_downlevel.obj
 0002:000056d8       ??_C@_1M@HBAHBIGA@?$AAk?$AAy?$AA?9?$AAk?$AAg@ 00000001800296d8     libucrt:lcidtoname_downlevel.obj
 0002:000056e8       ??_C@_1M@KPMILCJG@?$AAl?$AAt?$AA?9?$AAl?$AAt@ 00000001800296e8     libucrt:lcidtoname_downlevel.obj
 0002:000056f8       ??_C@_1M@BDEKKCA@?$AAl?$AAv?$AA?9?$AAl?$AAv@ 00000001800296f8     libucrt:lcidtoname_downlevel.obj
 0002:00005708       ??_C@_1M@ELCKCCJJ@?$AAm?$AAi?$AA?9?$AAn?$AAz@ 0000000180029708     libucrt:lcidtoname_downlevel.obj
 0002:00005718       ??_C@_1M@CBOOLAPA@?$AAm?$AAk?$AA?9?$AAm?$AAk@ 0000000180029718     libucrt:lcidtoname_downlevel.obj
 0002:00005728       ??_C@_1M@GPHNBJKN@?$AAm?$AAl?$AA?9?$AAi?$AAn@ 0000000180029728     libucrt:lcidtoname_downlevel.obj
 0002:00005738       ??_C@_1M@PABJILIG@?$AAm?$AAn?$AA?9?$AAm?$AAn@ 0000000180029738     libucrt:lcidtoname_downlevel.obj
 0002:00005748       ??_C@_1M@FGBKKIPG@?$AAm?$AAr?$AA?9?$AAi?$AAn@ 0000000180029748     libucrt:lcidtoname_downlevel.obj
 0002:00005758       ??_C@_1M@NDBPDDAL@?$AAm?$AAs?$AA?9?$AAb?$AAn@ 0000000180029758     libucrt:lcidtoname_downlevel.obj
 0002:00005768       ??_C@_1M@OPIHOOPI@?$AAm?$AAs?$AA?9?$AAm?$AAy@ 0000000180029768     libucrt:lcidtoname_downlevel.obj
 0002:00005778       ??_C@_1M@PPDBCNFM@?$AAm?$AAt?$AA?9?$AAm?$AAt@ 0000000180029778     libucrt:lcidtoname_downlevel.obj
 0002:00005788       ??_C@_1M@KDJDKMDD@?$AAn?$AAb?$AA?9?$AAn?$AAo@ 0000000180029788     libucrt:lcidtoname_downlevel.obj
 0002:00005798       ??_C@_1M@KFCFLMJP@?$AAn?$AAl?$AA?9?$AAb?$AAe@ 0000000180029798     libucrt:lcidtoname_downlevel.obj
 0002:000057a8       ??_C@_1M@KPOPDDGO@?$AAn?$AAl?$AA?9?$AAn?$AAl@ 00000001800297a8     libucrt:lcidtoname_downlevel.obj
 0002:000057b8       ??_C@_1M@LJKPEMLN@?$AAn?$AAn?$AA?9?$AAn?$AAo@ 00000001800297b8     libucrt:lcidtoname_downlevel.obj
 0002:000057c8       ??_C@_1M@BDGHHBFL@?$AAn?$AAs?$AA?9?$AAz?$AAa@ 00000001800297c8     libucrt:lcidtoname_downlevel.obj
 0002:000057d8       ??_C@_1M@IDEHOAP@?$AAp?$AAa?$AA?9?$AAi?$AAn@ 00000001800297d8     libucrt:lcidtoname_downlevel.obj
 0002:000057e8       ??_C@_1M@HDBKGOGH@?$AAp?$AAl?$AA?9?$AAp?$AAl@ 00000001800297e8     libucrt:lcidtoname_downlevel.obj
 0002:000057f8       ??_C@_1M@LJLLCMEH@?$AAp?$AAt?$AA?9?$AAb?$AAr@ 00000001800297f8     libucrt:lcidtoname_downlevel.obj
 0002:00005808       ??_C@_1M@NCMONAAL@?$AAp?$AAt?$AA?9?$AAp?$AAt@ 0000000180029808     libucrt:lcidtoname_downlevel.obj
 0002:00005818       ??_C@_1O@EAKMAJDN@?$AAq?$AAu?$AAz?$AA?9?$AAb?$AAo@ 0000000180029818     libucrt:lcidtoname_downlevel.obj
 0002:00005828       ??_C@_1O@BHHPIGDN@?$AAq?$AAu?$AAz?$AA?9?$AAe?$AAc@ 0000000180029828     libucrt:lcidtoname_downlevel.obj
 0002:00005838       ??_C@_1O@GBAPEKMJ@?$AAq?$AAu?$AAz?$AA?9?$AAp?$AAe@ 0000000180029838     libucrt:lcidtoname_downlevel.obj
 0002:00005848       ??_C@_1M@CLGLEFBO@?$AAr?$AAo?$AA?9?$AAr?$AAo@ 0000000180029848     libucrt:lcidtoname_downlevel.obj
 0002:00005858       ??_C@_1M@CEEDODME@?$AAr?$AAu?$AA?9?$AAr?$AAu@ 0000000180029858     libucrt:lcidtoname_downlevel.obj
 0002:00005868       ??_C@_1M@HPKKKMPP@?$AAs?$AAa?$AA?9?$AAi?$AAn@ 0000000180029868     libucrt:lcidtoname_downlevel.obj
 0002:00005878       ??_C@_1M@BKMAIGOJ@?$AAs?$AAe?$AA?9?$AAf?$AAi@ 0000000180029878     libucrt:lcidtoname_downlevel.obj
 0002:00005888       ??_C@_1M@NDPIFLFI@?$AAs?$AAe?$AA?9?$AAn?$AAo@ 0000000180029888     libucrt:lcidtoname_downlevel.obj
 0002:00005898       ??_C@_1M@DANKKHJ@?$AAs?$AAe?$AA?9?$AAs?$AAe@ 0000000180029898     libucrt:lcidtoname_downlevel.obj
 0002:000058a8       ??_C@_1M@PNBLONPJ@?$AAs?$AAk?$AA?9?$AAs?$AAk@ 00000001800298a8     libucrt:lcidtoname_downlevel.obj
 0002:000058b8       ??_C@_1M@LFMODOAL@?$AAs?$AAl?$AA?9?$AAs?$AAi@ 00000001800298b8     libucrt:lcidtoname_downlevel.obj
 0002:000058c8       ??_C@_1O@DFKOMPG@?$AAs?$AAm?$AAa?$AA?9?$AAn?$AAo@ 00000001800298c8     libucrt:lcidtoname_downlevel.obj
 0002:000058d8       ??_C@_1O@NDKPBNNH@?$AAs?$AAm?$AAa?$AA?9?$AAs?$AAe@ 00000001800298d8     libucrt:lcidtoname_downlevel.obj
 0002:000058e8       ??_C@_1O@PLLKBHAB@?$AAs?$AAm?$AAj?$AA?9?$AAn?$AAo@ 00000001800298e8     libucrt:lcidtoname_downlevel.obj
 0002:000058f8       ??_C@_1O@CLEPOGCA@?$AAs?$AAm?$AAj?$AA?9?$AAs?$AAe@ 00000001800298f8     libucrt:lcidtoname_downlevel.obj
 0002:00005908       ??_C@_1O@DLGJGKMK@?$AAs?$AAm?$AAn?$AA?9?$AAf?$AAi@ 0000000180029908     libucrt:lcidtoname_downlevel.obj
 0002:00005918       ??_C@_1O@OJDJGAJC@?$AAs?$AAm?$AAs?$AA?9?$AAf?$AAi@ 0000000180029918     libucrt:lcidtoname_downlevel.obj
 0002:00005928       ??_C@_1M@BOFOGHPB@?$AAs?$AAq?$AA?9?$AAa?$AAl@ 0000000180029928     libucrt:lcidtoname_downlevel.obj
 0002:00005938       ??_C@_1BG@LJBBIPGB@?$AAs?$AAr?$AA?9?$AAb?$AAa?$AA?9?$AAc?$AAy?$AAr?$AAl@ 0000000180029938     libucrt:lcidtoname_downlevel.obj
 0002:00005950       ??_C@_1BG@JLBENFOE@?$AAs?$AAr?$AA?9?$AAb?$AAa?$AA?9?$AAl?$AAa?$AAt?$AAn@ 0000000180029950     libucrt:lcidtoname_downlevel.obj
 0002:00005968       ??_C@_1BG@KODPNHE@?$AAs?$AAr?$AA?9?$AAs?$AAp?$AA?9?$AAc?$AAy?$AAr?$AAl@ 0000000180029968     libucrt:lcidtoname_downlevel.obj
 0002:00005980       ??_C@_1BG@CIOGKHPB@?$AAs?$AAr?$AA?9?$AAs?$AAp?$AA?9?$AAl?$AAa?$AAt?$AAn@ 0000000180029980     libucrt:lcidtoname_downlevel.obj
 0002:00005998       ??_C@_1M@NGFJLMAC@?$AAs?$AAv?$AA?9?$AAf?$AAi@ 0000000180029998     libucrt:lcidtoname_downlevel.obj
 0002:000059a8       ??_C@_1M@MPJEJAJC@?$AAs?$AAv?$AA?9?$AAs?$AAe@ 00000001800299a8     libucrt:lcidtoname_downlevel.obj
 0002:000059b8       ??_C@_1M@MPNDHLFK@?$AAs?$AAw?$AA?9?$AAk?$AAe@ 00000001800299b8     libucrt:lcidtoname_downlevel.obj
 0002:000059c8       ??_C@_1O@KOHBJJI@?$AAs?$AAy?$AAr?$AA?9?$AAs?$AAy@ 00000001800299c8     libucrt:lcidtoname_downlevel.obj
 0002:000059d8       ??_C@_1M@LDCEFHA@?$AAt?$AAa?$AA?9?$AAi?$AAn@ 00000001800299d8     libucrt:lcidtoname_downlevel.obj
 0002:000059e8       ??_C@_1M@CNJOFAK@?$AAt?$AAe?$AA?9?$AAi?$AAn@ 00000001800299e8     libucrt:lcidtoname_downlevel.obj
 0002:000059f8       ??_C@_1M@GNAECACD@?$AAt?$AAh?$AA?9?$AAt?$AAh@ 00000001800299f8     libucrt:lcidtoname_downlevel.obj
 0002:00005a08       ??_C@_1M@CHBIHOJO@?$AAt?$AAn?$AA?9?$AAz?$AAa@ 0000000180029a08     libucrt:lcidtoname_downlevel.obj
 0002:00005a18       ??_C@_1M@GCCMIGPJ@?$AAt?$AAr?$AA?9?$AAt?$AAr@ 0000000180029a18     libucrt:lcidtoname_downlevel.obj
 0002:00005a28       ??_C@_1M@CELMCNBK@?$AAt?$AAt?$AA?9?$AAr?$AAu@ 0000000180029a28     libucrt:lcidtoname_downlevel.obj
 0002:00005a38       ??_C@_1M@KLMCELGA@?$AAu?$AAk?$AA?9?$AAu?$AAa@ 0000000180029a38     libucrt:lcidtoname_downlevel.obj
 0002:00005a48       ??_C@_1M@EPAJJAJF@?$AAu?$AAr?$AA?9?$AAp?$AAk@ 0000000180029a48     libucrt:lcidtoname_downlevel.obj
 0002:00005a58       ??_C@_1BG@GEGPMCDJ@?$AAu?$AAz?$AA?9?$AAu?$AAz?$AA?9?$AAc?$AAy?$AAr?$AAl@ 0000000180029a58     libucrt:lcidtoname_downlevel.obj
 0002:00005a70       ??_C@_1BG@EGGKJILM@?$AAu?$AAz?$AA?9?$AAu?$AAz?$AA?9?$AAl?$AAa?$AAt?$AAn@ 0000000180029a70     libucrt:lcidtoname_downlevel.obj
 0002:00005a88       ??_C@_1M@GFOCLFF@?$AAv?$AAi?$AA?9?$AAv?$AAn@ 0000000180029a88     libucrt:lcidtoname_downlevel.obj
 0002:00005a98       ??_C@_1M@CPAMEDFI@?$AAx?$AAh?$AA?9?$AAz?$AAa@ 0000000180029a98     libucrt:lcidtoname_downlevel.obj
 0002:00005aa8       ??_C@_1O@EBKIFIGN@?$AAz?$AAh?$AA?9?$AAc?$AAh?$AAs@ 0000000180029aa8     libucrt:lcidtoname_downlevel.obj
 0002:00005ab8       ??_C@_1O@NMHPGANE@?$AAz?$AAh?$AA?9?$AAc?$AAh?$AAt@ 0000000180029ab8     libucrt:lcidtoname_downlevel.obj
 0002:00005ac8       ??_C@_1M@LPINJOMC@?$AAz?$AAh?$AA?9?$AAc?$AAn@ 0000000180029ac8     libucrt:lcidtoname_downlevel.obj
 0002:00005ad8       ??_C@_1M@OCJEJODD@?$AAz?$AAh?$AA?9?$AAh?$AAk@ 0000000180029ad8     libucrt:lcidtoname_downlevel.obj
 0002:00005ae8       ??_C@_1M@DNDLJINH@?$AAz?$AAh?$AA?9?$AAm?$AAo@ 0000000180029ae8     libucrt:lcidtoname_downlevel.obj
 0002:00005af8       ??_C@_1M@MBFDNDND@?$AAz?$AAh?$AA?9?$AAs?$AAg@ 0000000180029af8     libucrt:lcidtoname_downlevel.obj
 0002:00005b08       ??_C@_1M@IMEPLEPE@?$AAz?$AAh?$AA?9?$AAt?$AAw@ 0000000180029b08     libucrt:lcidtoname_downlevel.obj
 0002:00005b18       ??_C@_1M@BBGHNHJP@?$AAz?$AAu?$AA?9?$AAz?$AAa@ 0000000180029b18     libucrt:lcidtoname_downlevel.obj
 0002:00005d80       ??_C@_1BA@BALFACEM@?$AAC?$AAO?$AAN?$AAO?$AAU?$AAT?$AA$@ 0000000180029d80     libucrt:initcon.obj
 0002:00005d90       __log10_256_lead           0000000180029d90     libucrt:log10_256_lead_tail_table.obj
 0002:000065a0       __log10_256_tail           000000018002a5a0     libucrt:log10_256_lead_tail_table.obj
 0002:00006db0       __log_F_inv_qword          000000018002adb0     libucrt:log_f_inv_qword_table.obj
 0002:000075c0       ??_C@_05HGHHAHAP@log10@    000000018002b5c0     libucrt:log_special.obj
 0002:000075e0       ??_C@_1BK@DBDEIDLH@?$AAK?$AAE?$AAR?$AAN?$AAE?$AAL?$AA3?$AA2?$AA?4?$AAD?$AAL?$AAL@ 000000018002b5e0     DelayImp:delayhlp.obj
 0002:00007600       ??_C@_0BI@OMNLIJDB@AcquireSRWLockExclusive@ 000000018002b600     DelayImp:delayhlp.obj
 0002:00007618       ??_C@_0BI@HMIEPCNJ@ReleaseSRWLockExclusive@ 000000018002b618     DelayImp:delayhlp.obj
 0002:00007630       __pfnDliFailureHook2       000000018002b630     DelayImp:delayhk1.obj
 0002:00007640       _load_config_used          000000018002b640     LIBCMT:loadcfg.obj
 0002:00007748       ??_C@_07ONPFMHHK@convert@  000000018002b748     binding.obj
 0002:00007750       ??_C@_04IHONJAFL@make@     000000018002b750     binding.obj
 0002:00007758       ??_C@_05DLCHNBFO@E2BIG@    000000018002b758     binding.obj
 0002:00007760       ??_C@_06MNLNBHMB@EILSEQ@   000000018002b760     binding.obj
 0002:00007768       ??_C@_06HIMGHAFD@EINVAL@   000000018002b768     binding.obj
 0002:00007770       ??_C@_0EJ@GCOMMFEM@C?3?2Users?2user?2Desktop?2Git?2git?2S@ 000000018002b770     binding.obj
 0002:000077c0       ??_C@_08NJCMPDLN@libiconv@ 000000018002b7c0     binding.obj
 0002:0009bc28       __pfnDliNotifyHook2        00000001800bfc28     win_delay_load_hook.obj
 0002:000e4700       ??_C@_00CNPNBAHC@@         0000000180108700     localcharset.obj
 0002:000e4708       ??_C@_08JDDNMFDB@node?4exe@ 0000000180108708     win_delay_load_hook.obj
 0002:000e4b30       __rtc_iaa                  0000000180108b30     LIBCMT:initsect.obj
 0002:000e4b38       __rtc_izz                  0000000180108b38     LIBCMT:initsect.obj
 0002:000e4b40       __rtc_taa                  0000000180108b40     LIBCMT:initsect.obj
 0002:000e4b48       __rtc_tzz                  0000000180108b48     LIBCMT:initsect.obj
 0002:000e5c30       __DELAY_IMPORT_DESCRIPTOR_node_exe 0000000180109c30     node:node.exe
 0002:000e5c50       __NULL_DELAY_IMPORT_DESCRIPTOR 0000000180109c50     node:node.exe
 0002:000e5ce0       \177node_NULL_THUNK_DATA_DLN 0000000180109ce0     node:node.exe
 0002:000e5e38       \177node_NULL_THUNK_DATA_DLB 0000000180109e38     node:node.exe
 0002:000e5f04       __IMPORT_DESCRIPTOR_KERNEL32 0000000180109f04     kernel32:KERNEL32.dll
 0002:000e5f18       __NULL_IMPORT_DESCRIPTOR   0000000180109f18     kernel32:KERNEL32.dll
 0003:00000000       __security_cookie_complement 000000018010b000     LIBCMT:gs_cookie.obj
 0003:00000008       __security_cookie          000000018010b008     LIBCMT:gs_cookie.obj
 0003:00000010       __scrt_native_dllmain_reason 000000018010b010     LIBCMT:utility.obj
 0003:00000018       __isa_available            000000018010b018     LIBCMT:cpu_disp.obj
 0003:0000001c       __isa_enabled              000000018010b01c     LIBCMT:cpu_disp.obj
 0003:00000020       __memcpy_nt_iters          000000018010b020     LIBCMT:cpu_disp.obj
 0003:00000028       __memset_nt_iters          000000018010b028     LIBCMT:cpu_disp.obj
 0003:00000040       __abort_behavior           000000018010b040     libucrt:abort.obj
 0003:00000060       __acrt_initial_locale_data 000000018010b060     libucrt:nlsdata.obj
 0003:000001b8       __acrt_initial_locale_pointers 000000018010b1b8     libucrt:nlsdata.obj
 0003:000001c8       __acrt_wide_c_locale_string 000000018010b1c8     libucrt:nlsdata.obj
 0003:000001d0       __acrt_initial_multibyte_data 000000018010b1d0     libucrt:mbctype.obj
 0003:00000710       _iob                       000000018010b710     libucrt:_file.obj
 0003:00000818       __globallocalestatus       000000018010b818     libucrt:glstatus.obj
 0003:00000820       __acrt_lconv_c             000000018010b820     libucrt:localeconv.obj
 0003:000008b8       __acrt_lconv_static_decimal 000000018010b8b8     libucrt:localeconv.obj
 0003:000008bc       __acrt_lconv_static_W_decimal 000000018010b8bc     libucrt:localeconv.obj
 0003:000008c0       _lookuptrailbytes          000000018010b8c0     libucrt:read.obj
 0003:000009e0       _fltused                   000000018010b9e0     LIBCMT:fltused.obj
 0003:00000a38       __imp_napi_get_element     000000018010ba38     node:node.exe
 0003:00000a40       __imp_napi_get_typedarray_info 000000018010ba40     node:node.exe
 0003:00000a48       __imp_napi_get_null        000000018010ba48     node:node.exe
 0003:00000a50       __imp_napi_set_element     000000018010ba50     node:node.exe
 0003:00000a58       __imp_napi_get_value_string_utf8 000000018010ba58     node:node.exe
 0003:00000a60       __imp_napi_get_value_external 000000018010ba60     node:node.exe
 0003:00000a68       __imp_napi_create_uint32   000000018010ba68     node:node.exe
 0003:00000a70       __imp_napi_create_int32    000000018010ba70     node:node.exe
 0003:00000a78       __imp_napi_get_value_bool  000000018010ba78     node:node.exe
 0003:00000a80       __imp_napi_create_external 000000018010ba80     node:node.exe
 0003:00000a88       __imp_napi_module_register 000000018010ba88     node:node.exe
 0003:00000a90       __imp_napi_define_properties 000000018010ba90     node:node.exe
 0003:00000a98       __imp_napi_get_value_uint32 000000018010ba98     node:node.exe
 0003:00000aa0       __imp_napi_get_cb_info     000000018010baa0     node:node.exe
 0003:00000aa8       \177node_NULL_THUNK_DATA_DLA 000000018010baa8     node:node.exe
 0003:00000ab0       __hmod__node_exe           000000018010bab0     node:node.exe
 0003:00001030       ?__type_info_root_node@@3U__type_info_node@@A 000000018010c030     LIBCMT:tncleanup.obj
 0003:00001040       ?_OptionsStorage@?1??__local_stdio_printf_options@@9@4_KA 000000018010c040     LIBCMT:default_local_stdio_options.obj
 0003:00001048       ?_OptionsStorage@?1??__local_stdio_scanf_options@@9@4_KA 000000018010c048     LIBCMT:default_local_stdio_options.obj
 0003:00001050       __scrt_current_native_startup_state 000000018010c050     LIBCMT:utility.obj
 0003:00001058       __scrt_native_startup_lock 000000018010c058     LIBCMT:utility.obj
 0003:00001098       __scrt_debugger_hook_flag  000000018010c098     LIBCMT:utility_desktop.obj
 0003:0000109c       __favor                    000000018010c09c     LIBCMT:cpu_disp.obj
 0003:000010a0       ?__WinRTOutOfMemoryExceptionCallback@@3P6APEAXXZEA 000000018010c0a0     libvcruntime:ehhelpers.obj
 0003:000010a8       ?pArgList@UnDecorator@@0PEAVReplicator@@EA 000000018010c0a8     libvcruntime:undname.obj
 0003:000010b0       ?pZNameList@UnDecorator@@0PEAVReplicator@@EA 000000018010c0b0     libvcruntime:undname.obj
 0003:000010b8       ?pTemplateArgList@UnDecorator@@0PEAVReplicator@@EA 000000018010c0b8     libvcruntime:undname.obj
 0003:000010c0       ?gName@UnDecorator@@0PEBDEB 000000018010c0c0     libvcruntime:undname.obj
 0003:000010c8       ?name@UnDecorator@@0PEBDEB 000000018010c0c8     libvcruntime:undname.obj
 0003:000010d0       ?disableFlags@UnDecorator@@0KA 000000018010c0d0     libvcruntime:undname.obj
 0003:000010d4       ?fExplicitTemplateParams@UnDecorator@@0_NA 000000018010c0d4     libvcruntime:undname.obj
 0003:000010d5       ?fGetTemplateArgumentList@UnDecorator@@0_NA 000000018010c0d5     libvcruntime:undname.obj
 0003:000010d8       ?m_pGetParameter@UnDecorator@@0P6APEADJ@ZEA 000000018010c0d8     libvcruntime:undname.obj
 0003:000010e0       ?m_CHPENameOffset@UnDecorator@@0KA 000000018010c0e0     libvcruntime:undname.obj
 0003:000010e4       ?m_recursionLevel@UnDecorator@@0KA 000000018010c0e4     libvcruntime:undname.obj
 0003:00001200       __pPurecall                000000018010c200     libvcruntime:purevirt_data.obj
 0003:00001218       ?c_exit_complete@?1???R<lambda_6e4b09c48022b2350581041d5f6b0c4c>@@QEBA@XZ@4_NA 000000018010c218     libucrt:exit.obj
 0003:00001328       _environ_table             000000018010c328     libucrt:environment_initialization.obj
 0003:00001330       _wenviron_table            000000018010c330     libucrt:environment_initialization.obj
 0003:00001338       __dcrt_initial_wide_environment 000000018010c338     libucrt:environment_initialization.obj
 0003:00001340       __dcrt_initial_narrow_environment 000000018010c340     libucrt:environment_initialization.obj
 0003:00001348       __acrt_atexit_table        000000018010c348     libucrt:onexit.obj
 0003:00001360       __acrt_at_quick_exit_table 000000018010c360     libucrt:onexit.obj
 0003:000013a0       __acrt_locale_changed_data 000000018010c3a0     libucrt:wsetlocale.obj
 0003:000013a8       __acrt_current_locale_data 000000018010c3a8     libucrt:nlsdata.obj
 0003:000015e8       _mbctype                   000000018010c5e8     libucrt:mbctype.obj
 0003:000015f0       _mbcasemap                 000000018010c5f0     libucrt:mbctype.obj
 0003:000015f8       __acrt_current_multibyte_data 000000018010c5f8     libucrt:mbctype.obj
 0003:00001608       _pgmptr                    000000018010c608     libucrt:argv_data.obj
 0003:00001610       __argc                     000000018010c610     libucrt:argv_data.obj
 0003:00001618       __argv                     000000018010c618     libucrt:argv_data.obj
 0003:00001620       __wargv                    000000018010c620     libucrt:argv_data.obj
 0003:00001628       _acmdln                    000000018010c628     libucrt:argv_data.obj
 0003:00001630       _wcmdln                    000000018010c630     libucrt:argv_data.obj
 0003:000017f0       __acrt_heap                000000018010c7f0     libucrt:heap_handle.obj
 0003:00001800       __pioinfo                  000000018010c800     libucrt:ioinit.obj
 0003:00001c00       _nhandle                   000000018010cc00     libucrt:ioinit.obj
 0003:00001c18       _nstream                   000000018010cc18     libucrt:_file.obj
 0003:00001c20       __piob                     000000018010cc20     libucrt:_file.obj
 0003:00001c28       __acrt_stdout_buffer       000000018010cc28     libucrt:_sftbuf.obj
 0003:00001c30       __acrt_stderr_buffer       000000018010cc30     libucrt:_sftbuf.obj
 0003:00001c44       __acrt_lconv_static_null   000000018010cc44     libucrt:localeconv.obj
 0003:00001c48       __acrt_lconv_static_W_null 000000018010cc48     libucrt:localeconv.obj
 0003:00001c58       __fma3_is_available        000000018010cc58     libucrt:fma3_available.obj
 0003:00001c5c       __use_fma3_lib             000000018010cc5c     libucrt:fma3_available.obj
 0003:00001c60       ?DloadKernel32@@3PEAUHINSTANCE__@@EA 000000018010cc60     DelayImp:delayhlp.obj
 0003:00001c68       ?DloadAcquireSRWLockExclusive@@3P6AXPEA_K@ZEA 000000018010cc68     DelayImp:delayhlp.obj
 0003:00001c70       ?DloadReleaseSRWLockExclusive@@3P6AXPEA_K@ZEA 000000018010cc70     DelayImp:delayhlp.obj
 0003:00001c78       ?DloadSrwLock@@3_KA        000000018010cc78     DelayImp:delayhlp.obj
 0003:00001c80       ?DloadSectionLockCount@@3KA 000000018010cc80     DelayImp:delayhlp.obj
 0003:00001c84       ?DloadSectionOldProtection@@3KA 000000018010cc84     DelayImp:delayhlp.obj
 0003:00001c88       ?DloadSectionCommitPermanent@@3KA 000000018010cc88     DelayImp:delayhlp.obj
 0003:00001c8c       __scrt_ucrt_dll_is_in_use  000000018010cc8c     <common>
 0003:00001c90       __dyn_tls_init_callback    000000018010cc90     <common>

 entry point at        0001:00017654

 Static symbols

 0000:ffeed000       .debug$S                   0000000180000000     iconv.exp
 0000:ffeed000       .debug$S                   0000000180000000     kernel32:KERNEL32.dll
 0000:ffeed000       .debug$S                   0000000180000000     kernel32:KERNEL32.dll
 0000:ffeed000       .debug$S                   0000000180000000     kernel32:KERNEL32.dll
 0000:ffeed000       .debug$S                   0000000180000000     kernel32:KERNEL32.dll
 0000:ffeed000       .debug$S                   0000000180000000     kernel32:KERNEL32.dll
 0000:ffeed000       .debug$S                   0000000180000000     kernel32:KERNEL32.dll
 0000:ffeed000       .debug$S                   0000000180000000     kernel32:KERNEL32.dll
 0000:ffeed000       .debug$S                   0000000180000000     kernel32:KERNEL32.dll
 0000:ffeed000       .debug$S                   0000000180000000     kernel32:KERNEL32.dll
 0000:ffeed000       .debug$S                   0000000180000000     kernel32:KERNEL32.dll
 0000:ffeed000       .debug$S                   0000000180000000     kernel32:KERNEL32.dll
 0000:ffeed000       .debug$S                   0000000180000000     kernel32:KERNEL32.dll
 0000:ffeed000       .debug$S                   0000000180000000     kernel32:KERNEL32.dll
 0000:ffeed000       .debug$S                   0000000180000000     kernel32:KERNEL32.dll
 0000:ffeed000       .debug$S                   0000000180000000     kernel32:KERNEL32.dll
 0000:ffeed000       .debug$S                   0000000180000000     kernel32:KERNEL32.dll
 0000:ffeed000       .debug$S                   0000000180000000     kernel32:KERNEL32.dll
 0000:ffeed000       .debug$S                   0000000180000000     kernel32:KERNEL32.dll
 0000:ffeed000       .debug$S                   0000000180000000     kernel32:KERNEL32.dll
 0000:ffeed000       .debug$S                   0000000180000000     kernel32:KERNEL32.dll
 0000:ffeed000       .debug$S                   0000000180000000     kernel32:KERNEL32.dll
 0000:ffeed000       .debug$S                   0000000180000000     kernel32:KERNEL32.dll
 0000:ffeed000       .debug$S                   0000000180000000     kernel32:KERNEL32.dll
 0000:ffeed000       .debug$S                   0000000180000000     kernel32:KERNEL32.dll
 0000:ffeed000       .debug$S                   0000000180000000     kernel32:KERNEL32.dll
 0000:ffeed000       .debug$S                   0000000180000000     kernel32:KERNEL32.dll
 0000:ffeed000       .debug$S                   0000000180000000     kernel32:KERNEL32.dll
 0000:ffeed000       .debug$S                   0000000180000000     kernel32:KERNEL32.dll
 0000:ffeed000       .debug$S                   0000000180000000     kernel32:KERNEL32.dll
 0000:ffeed000       .debug$S                   0000000180000000     kernel32:KERNEL32.dll
 0000:ffeed000       .debug$S                   0000000180000000     kernel32:KERNEL32.dll
 0000:ffeed000       .debug$S                   0000000180000000     kernel32:KERNEL32.dll
 0000:ffeed000       .debug$S                   0000000180000000     kernel32:KERNEL32.dll
 0000:ffeed000       .debug$S                   0000000180000000     kernel32:KERNEL32.dll
 0000:ffeed000       .debug$S                   0000000180000000     kernel32:KERNEL32.dll
 0000:ffeed000       .debug$S                   0000000180000000     kernel32:KERNEL32.dll
 0000:ffeed000       .debug$S                   0000000180000000     kernel32:KERNEL32.dll
 0000:ffeed000       .debug$S                   0000000180000000     kernel32:KERNEL32.dll
 0000:ffeed000       .debug$S                   0000000180000000     kernel32:KERNEL32.dll
 0000:ffeed000       .debug$S                   0000000180000000     kernel32:KERNEL32.dll
 0000:ffeed000       .debug$S                   0000000180000000     kernel32:KERNEL32.dll
 0000:ffeed000       .debug$S                   0000000180000000     kernel32:KERNEL32.dll
 0000:ffeed000       .debug$S                   0000000180000000     kernel32:KERNEL32.dll
 0000:ffeed000       .debug$S                   0000000180000000     kernel32:KERNEL32.dll
 0000:ffeed000       .debug$S                   0000000180000000     kernel32:KERNEL32.dll
 0000:ffeed000       .debug$S                   0000000180000000     kernel32:KERNEL32.dll
 0000:ffeed000       .debug$S                   0000000180000000     kernel32:KERNEL32.dll
 0000:ffeed000       .debug$S                   0000000180000000     kernel32:KERNEL32.dll
 0000:ffeed000       .debug$S                   0000000180000000     kernel32:KERNEL32.dll
 0000:ffeed000       .debug$S                   0000000180000000     kernel32:KERNEL32.dll
 0000:ffeed000       .debug$S                   0000000180000000     kernel32:KERNEL32.dll
 0000:ffeed000       .debug$S                   0000000180000000     kernel32:KERNEL32.dll
 0000:ffeed000       .debug$S                   0000000180000000     kernel32:KERNEL32.dll
 0000:ffeed000       .debug$S                   0000000180000000     kernel32:KERNEL32.dll
 0000:ffeed000       .debug$S                   0000000180000000     kernel32:KERNEL32.dll
 0000:ffeed000       .debug$S                   0000000180000000     kernel32:KERNEL32.dll
 0000:ffeed000       .debug$S                   0000000180000000     kernel32:KERNEL32.dll
 0000:ffeed000       .debug$S                   0000000180000000     kernel32:KERNEL32.dll
 0000:ffeed000       .debug$S                   0000000180000000     kernel32:KERNEL32.dll
 0000:ffeed000       .debug$S                   0000000180000000     kernel32:KERNEL32.dll
 0000:ffeed000       .debug$S                   0000000180000000     kernel32:KERNEL32.dll
 0000:ffeed000       .debug$S                   0000000180000000     kernel32:KERNEL32.dll
 0000:ffeed000       .debug$S                   0000000180000000     kernel32:KERNEL32.dll
 0000:ffeed000       .debug$S                   0000000180000000     kernel32:KERNEL32.dll
 0000:ffeed000       .debug$S                   0000000180000000     kernel32:KERNEL32.dll
 0000:ffeed000       .debug$S                   0000000180000000     kernel32:KERNEL32.dll
 0000:ffeed000       .debug$S                   0000000180000000     kernel32:KERNEL32.dll
 0000:ffeed000       .debug$S                   0000000180000000     kernel32:KERNEL32.dll
 0000:ffeed000       .debug$S                   0000000180000000     kernel32:KERNEL32.dll
 0000:ffeed000       .debug$S                   0000000180000000     kernel32:KERNEL32.dll
 0000:ffeed000       .debug$S                   0000000180000000     kernel32:KERNEL32.dll
 0000:ffeed000       .debug$S                   0000000180000000     kernel32:KERNEL32.dll
 0000:ffeed000       .debug$S                   0000000180000000     kernel32:KERNEL32.dll
 0000:ffeed000       .debug$S                   0000000180000000     kernel32:KERNEL32.dll
 0000:ffeed000       .debug$S                   0000000180000000     kernel32:KERNEL32.dll
 0000:ffeed000       .debug$S                   0000000180000000     kernel32:KERNEL32.dll
 0000:ffeed000       .debug$S                   0000000180000000     kernel32:KERNEL32.dll
 0000:ffeed000       .debug$S                   0000000180000000     kernel32:KERNEL32.dll
 0000:ffeed000       .debug$S                   0000000180000000     kernel32:KERNEL32.dll
 0000:ffeed000       .debug$S                   0000000180000000     kernel32:KERNEL32.dll
 0000:ffeed000       .debug$S                   0000000180000000     kernel32:KERNEL32.dll
 0000:ffeed000       .debug$S                   0000000180000000     kernel32:KERNEL32.dll
 0000:ffeed000       .debug$S                   0000000180000000     kernel32:KERNEL32.dll
 0000:ffeed000       .debug$S                   0000000180000000     kernel32:KERNEL32.dll
 0000:ffeed000       .debug$S                   0000000180000000     kernel32:KERNEL32.dll
 0000:ffeed000       .debug$S                   0000000180000000     kernel32:KERNEL32.dll
 0000:ffeed000       .debug$S                   0000000180000000     kernel32:KERNEL32.dll
 0000:ffeed000       .debug$S                   0000000180000000     kernel32:KERNEL32.dll
 0000:ffeed000       .debug$S                   0000000180000000     kernel32:KERNEL32.dll
 0000:ffeed000       .debug$S                   0000000180000000     node:node.exe
 0000:ffeed000       .debug$S                   0000000180000000     node:node.exe
 0000:ffeed000       .debug$S                   0000000180000000     node:node.exe
 0000:ffeed000       .debug$S                   0000000180000000     node:node.exe
 0000:ffeed000       .debug$S                   0000000180000000     node:node.exe
 0000:ffeed000       .debug$S                   0000000180000000     node:node.exe
 0000:ffeed000       .debug$S                   0000000180000000     node:node.exe
 0000:ffeed000       .debug$S                   0000000180000000     node:node.exe
 0000:ffeed000       .debug$S                   0000000180000000     node:node.exe
 0000:ffeed000       .debug$S                   0000000180000000     node:node.exe
 0000:ffeed000       .debug$S                   0000000180000000     node:node.exe
 0000:ffeed000       .debug$S                   0000000180000000     node:node.exe
 0000:ffeed000       .debug$S                   0000000180000000     node:node.exe
 0000:ffeed000       .debug$S                   0000000180000000     node:node.exe
 0001:00000660       _register_libiconv         0000000180001660 f   binding.obj
 0001:00000670       ascii_mbtowc               0000000180001670 f   iconv.obj
 0001:00000690       ascii_wctomb               0000000180001690 f   iconv.obj
 0001:000006b0       utf8_mbtowc                00000001800016b0 f   iconv.obj
 0001:00000800       utf8_wctomb                0000000180001800 f   iconv.obj
 0001:000008d0       ucs2_mbtowc                00000001800018d0 f   iconv.obj
 0001:00000980       ucs2_wctomb                0000000180001980 f   iconv.obj
 0001:000009d0       ucs2be_mbtowc              00000001800019d0 f   iconv.obj
 0001:00000a00       ucs2be_wctomb              0000000180001a00 f   iconv.obj
 0001:00000a40       ucs2le_mbtowc              0000000180001a40 f   iconv.obj
 0001:00000a70       ucs2le_wctomb              0000000180001a70 f   iconv.obj
 0001:00000ab0       ucs4_mbtowc                0000000180001ab0 f   iconv.obj
 0001:00000b80       ucs4_wctomb                0000000180001b80 f   iconv.obj
 0001:00000bc0       ucs4be_mbtowc              0000000180001bc0 f   iconv.obj
 0001:00000c00       ucs4be_wctomb              0000000180001c00 f   iconv.obj
 0001:00000c30       ucs4le_mbtowc              0000000180001c30 f   iconv.obj
 0001:00000c70       ucs4le_wctomb              0000000180001c70 f   iconv.obj
 0001:00000ca0       utf16_mbtowc               0000000180001ca0 f   iconv.obj
 0001:00000dc0       utf16_wctomb               0000000180001dc0 f   iconv.obj
 0001:00000e90       utf16be_mbtowc             0000000180001e90 f   iconv.obj
 0001:00000f20       utf16be_wctomb             0000000180001f20 f   iconv.obj
 0001:00000fb0       utf16le_mbtowc             0000000180001fb0 f   iconv.obj
 0001:00001040       utf16le_wctomb             0000000180002040 f   iconv.obj
 0001:000010c0       utf32_mbtowc               00000001800020c0 f   iconv.obj
 0001:000011a0       utf32_wctomb               00000001800021a0 f   iconv.obj
 0001:00001220       utf32be_mbtowc             0000000180002220 f   iconv.obj
 0001:00001280       utf32be_wctomb             0000000180002280 f   iconv.obj
 0001:000012d0       utf32le_mbtowc             00000001800022d0 f   iconv.obj
 0001:00001330       utf32le_wctomb             0000000180002330 f   iconv.obj
 0001:00001380       utf7_mbtowc                0000000180002380 f   iconv.obj
 0001:00001630       utf7_wctomb                0000000180002630 f   iconv.obj
 0001:000018f0       utf7_reset                 00000001800028f0 f   iconv.obj
 0001:00001980       ucs2internal_mbtowc        0000000180002980 f   iconv.obj
 0001:000019c0       ucs2internal_wctomb        00000001800029c0 f   iconv.obj
 0001:00001a00       ucs2swapped_mbtowc         0000000180002a00 f   iconv.obj
 0001:00001a40       ucs2swapped_wctomb         0000000180002a40 f   iconv.obj
 0001:00001a80       ucs4internal_mbtowc        0000000180002a80 f   iconv.obj
 0001:00001aa0       ucs4internal_wctomb        0000000180002aa0 f   iconv.obj
 0001:00001ac0       ucs4swapped_mbtowc         0000000180002ac0 f   iconv.obj
 0001:00001ae0       ucs4swapped_wctomb         0000000180002ae0 f   iconv.obj
 0001:00001b00       c99_mbtowc                 0000000180002b00 f   iconv.obj
 0001:00001cb0       c99_wctomb                 0000000180002cb0 f   iconv.obj
 0001:00001d70       java_mbtowc                0000000180002d70 f   iconv.obj
 0001:00001f30       java_wctomb                0000000180002f30 f   iconv.obj
 0001:000020d0       iso8859_1_mbtowc           00000001800030d0 f   iconv.obj
 0001:000020e0       iso8859_1_wctomb           00000001800030e0 f   iconv.obj
 0001:00002100       iso8859_2_mbtowc           0000000180003100 f   iconv.obj
 0001:00002120       iso8859_2_wctomb           0000000180003120 f   iconv.obj
 0001:00002190       iso8859_3_mbtowc           0000000180003190 f   iconv.obj
 0001:000021d0       iso8859_3_wctomb           00000001800031d0 f   iconv.obj
 0001:00002260       iso8859_4_mbtowc           0000000180003260 f   iconv.obj
 0001:00002280       iso8859_4_wctomb           0000000180003280 f   iconv.obj
 0001:000022f0       iso8859_5_mbtowc           00000001800032f0 f   iconv.obj
 0001:00002310       iso8859_5_wctomb           0000000180003310 f   iconv.obj
 0001:00002390       iso8859_6_mbtowc           0000000180003390 f   iconv.obj
 0001:000023d0       iso8859_6_wctomb           00000001800033d0 f   iconv.obj
 0001:00002440       iso8859_7_mbtowc           0000000180003440 f   iconv.obj
 0001:00002480       iso8859_7_wctomb           0000000180003480 f   iconv.obj
 0001:00002530       iso8859_8_mbtowc           0000000180003530 f   iconv.obj
 0001:00002570       iso8859_8_wctomb           0000000180003570 f   iconv.obj
 0001:00002600       iso8859_9_mbtowc           0000000180003600 f   iconv.obj
 0001:00002620       iso8859_9_wctomb           0000000180003620 f   iconv.obj
 0001:00002690       iso8859_10_mbtowc          0000000180003690 f   iconv.obj
 0001:000026b0       iso8859_10_wctomb          00000001800036b0 f   iconv.obj
 0001:00002700       iso8859_11_mbtowc          0000000180003700 f   iconv.obj
 0001:00002740       iso8859_11_wctomb          0000000180003740 f   iconv.obj
 0001:00002780       iso8859_13_mbtowc          0000000180003780 f   iconv.obj
 0001:000027a0       iso8859_13_wctomb          00000001800037a0 f   iconv.obj
 0001:00002810       iso8859_14_mbtowc          0000000180003810 f   iconv.obj
 0001:00002830       iso8859_14_wctomb          0000000180003830 f   iconv.obj
 0001:00002910       iso8859_15_mbtowc          0000000180003910 f   iconv.obj
 0001:00002940       iso8859_15_wctomb          0000000180003940 f   iconv.obj
 0001:000029c0       iso8859_16_mbtowc          00000001800039c0 f   iconv.obj
 0001:000029e0       iso8859_16_wctomb          00000001800039e0 f   iconv.obj
 0001:00002a80       koi8_r_mbtowc              0000000180003a80 f   iconv.obj
 0001:00002aa0       koi8_r_wctomb              0000000180003aa0 f   iconv.obj
 0001:00002b80       koi8_u_mbtowc              0000000180003b80 f   iconv.obj
 0001:00002ba0       koi8_u_wctomb              0000000180003ba0 f   iconv.obj
 0001:00002c90       koi8_ru_mbtowc             0000000180003c90 f   iconv.obj
 0001:00002cb0       koi8_ru_wctomb             0000000180003cb0 f   iconv.obj
 0001:00002da0       cp1250_mbtowc              0000000180003da0 f   iconv.obj
 0001:00002de0       cp1250_wctomb              0000000180003de0 f   iconv.obj
 0001:00002e90       cp1251_mbtowc              0000000180003e90 f   iconv.obj
 0001:00002ed0       cp1251_wctomb              0000000180003ed0 f   iconv.obj
 0001:00002fa0       cp1252_mbtowc              0000000180003fa0 f   iconv.obj
 0001:00002fe0       cp1252_wctomb              0000000180003fe0 f   iconv.obj
 0001:000030a0       cp1253_mbtowc              00000001800040a0 f   iconv.obj
 0001:000030e0       cp1253_wctomb              00000001800040e0 f   iconv.obj
 0001:000031a0       cp1254_mbtowc              00000001800041a0 f   iconv.obj
 0001:00003220       cp1254_wctomb              0000000180004220 f   iconv.obj
 0001:00003310       normal_flushwc             0000000180004310 f   iconv.obj
 0001:00003330       cp1255_mbtowc              0000000180004330 f   iconv.obj
 0001:00003540       $LN43                      0000000180004540     iconv.obj
 0001:00003580       cp1255_wctomb              0000000180004580 f   iconv.obj
 0001:000037b0       cp1256_mbtowc              00000001800047b0 f   iconv.obj
 0001:000037d0       cp1256_wctomb              00000001800047d0 f   iconv.obj
 0001:000038c0       cp1257_mbtowc              00000001800048c0 f   iconv.obj
 0001:00003900       cp1257_wctomb              0000000180004900 f   iconv.obj
 0001:000039b0       cp1258_mbtowc              00000001800049b0 f   iconv.obj
 0001:00003b80       cp1258_wctomb              0000000180004b80 f   iconv.obj
 0001:00003dc0       cp850_mbtowc               0000000180004dc0 f   iconv.obj
 0001:00003de0       cp850_wctomb               0000000180004de0 f   iconv.obj
 0001:00003e90       cp862_mbtowc               0000000180004e90 f   iconv.obj
 0001:00003eb0       cp862_wctomb               0000000180004eb0 f   iconv.obj
 0001:00003ff0       cp866_mbtowc               0000000180004ff0 f   iconv.obj
 0001:00004030       cp866_wctomb               0000000180005030 f   iconv.obj
 0001:00004100       cp1131_mbtowc              0000000180005100 f   iconv.obj
 0001:00004120       cp1131_wctomb              0000000180005120 f   iconv.obj
 0001:000041d0       mac_roman_mbtowc           00000001800051d0 f   iconv.obj
 0001:00004210       mac_roman_wctomb           0000000180005210 f   iconv.obj
 0001:00004360       mac_centraleurope_mbtowc   0000000180005360 f   iconv.obj
 0001:00004380       mac_centraleurope_wctomb   0000000180005380 f   iconv.obj
 0001:00004470       mac_iceland_mbtowc         0000000180005470 f   iconv.obj
 0001:000044b0       mac_iceland_wctomb         00000001800054b0 f   iconv.obj
 0001:000045d0       mac_croatian_mbtowc        00000001800055d0 f   iconv.obj
 0001:00004610       mac_croatian_wctomb        0000000180005610 f   iconv.obj
 0001:00004710       mac_romania_mbtowc         0000000180005710 f   iconv.obj
 0001:00004750       mac_romania_wctomb         0000000180005750 f   iconv.obj
 0001:00004850       mac_cyrillic_mbtowc        0000000180005850 f   iconv.obj
 0001:00004870       mac_cyrillic_wctomb        0000000180005870 f   iconv.obj
 0001:00004970       mac_ukraine_mbtowc         0000000180005970 f   iconv.obj
 0001:00004990       mac_ukraine_wctomb         0000000180005990 f   iconv.obj
 0001:00004aa0       mac_greek_mbtowc           0000000180005aa0 f   iconv.obj
 0001:00004ae0       mac_greek_wctomb           0000000180005ae0 f   iconv.obj
 0001:00004bc0       mac_turkish_mbtowc         0000000180005bc0 f   iconv.obj
 0001:00004c00       mac_turkish_wctomb         0000000180005c00 f   iconv.obj
 0001:00004d20       mac_hebrew_mbtowc          0000000180005d20 f   iconv.obj
 0001:00004d60       mac_hebrew_wctomb          0000000180005d60 f   iconv.obj
 0001:00004e30       mac_arabic_mbtowc          0000000180005e30 f   iconv.obj
 0001:00004e70       mac_arabic_wctomb          0000000180005e70 f   iconv.obj
 0001:00004ef0       mac_thai_mbtowc            0000000180005ef0 f   iconv.obj
 0001:00004f30       mac_thai_wctomb            0000000180005f30 f   iconv.obj
 0001:00005000       hp_roman8_mbtowc           0000000180006000 f   iconv.obj
 0001:00005040       hp_roman8_wctomb           0000000180006040 f   iconv.obj
 0001:00005100       nextstep_mbtowc            0000000180006100 f   iconv.obj
 0001:00005140       nextstep_wctomb            0000000180006140 f   iconv.obj
 0001:00005220       armscii_8_mbtowc           0000000180006220 f   iconv.obj
 0001:00005260       armscii_8_wctomb           0000000180006260 f   iconv.obj
 0001:00005310       georgian_academy_mbtowc    0000000180006310 f   iconv.obj
 0001:00005350       georgian_academy_wctomb    0000000180006350 f   iconv.obj
 0001:00005440       georgian_ps_mbtowc         0000000180006440 f   iconv.obj
 0001:00005490       georgian_ps_wctomb         0000000180006490 f   iconv.obj
 0001:000055a0       koi8_t_mbtowc              00000001800065a0 f   iconv.obj
 0001:000055e0       koi8_t_wctomb              00000001800065e0 f   iconv.obj
 0001:000056a0       pt154_mbtowc               00000001800066a0 f   iconv.obj
 0001:000056e0       pt154_wctomb               00000001800066e0 f   iconv.obj
 0001:00005780       rk1048_mbtowc              0000000180006780 f   iconv.obj
 0001:000057c0       rk1048_wctomb              00000001800067c0 f   iconv.obj
 0001:00005890       mulelao_mbtowc             0000000180006890 f   iconv.obj
 0001:000058d0       mulelao_wctomb             00000001800068d0 f   iconv.obj
 0001:00005920       cp1133_mbtowc              0000000180006920 f   iconv.obj
 0001:00005970       cp1133_wctomb              0000000180006970 f   iconv.obj
 0001:000059f0       tis620_mbtowc              00000001800069f0 f   iconv.obj
 0001:00005a30       tis620_wctomb              0000000180006a30 f   iconv.obj
 0001:00005a70       cp874_mbtowc               0000000180006a70 f   iconv.obj
 0001:00005ab0       cp874_wctomb               0000000180006ab0 f   iconv.obj
 0001:00005b40       viscii_mbtowc              0000000180006b40 f   iconv.obj
 0001:00005b80       viscii_wctomb              0000000180006b80 f   iconv.obj
 0001:00005c10       tcvn_mbtowc                0000000180006c10 f   iconv.obj
 0001:00005dd0       tcvn_wctomb                0000000180006dd0 f   iconv.obj
 0001:00005f80       iso646_jp_mbtowc           0000000180006f80 f   iconv.obj
 0001:00005fb0       iso646_jp_wctomb           0000000180006fb0 f   iconv.obj
 0001:00006000       jisx0201_mbtowc            0000000180007000 f   iconv.obj
 0001:00006050       jisx0201_wctomb            0000000180007050 f   iconv.obj
 0001:000060b0       jisx0208_mbtowc            00000001800070b0 f   iconv.obj
 0001:00006140       jisx0208_wctomb            0000000180007140 f   iconv.obj
 0001:00006340       jisx0212_mbtowc            0000000180007340 f   iconv.obj
 0001:00006450       jisx0212_wctomb            0000000180007450 f   iconv.obj
 0001:000065b0       iso646_cn_mbtowc           00000001800075b0 f   iconv.obj
 0001:000065e0       iso646_cn_wctomb           00000001800075e0 f   iconv.obj
 0001:00006630       gb2312_mbtowc              0000000180007630 f   iconv.obj
 0001:000066c0       gb2312_wctomb              00000001800076c0 f   iconv.obj
 0001:00006880       isoir165ext_mbtowc         0000000180007880 f   iconv.obj
 0001:00006920       isoir165ext_wctomb         0000000180007920 f   iconv.obj
 0001:00006b80       isoir165_mbtowc            0000000180007b80 f   iconv.obj
 0001:00006cb0       isoir165_wctomb            0000000180007cb0 f   iconv.obj
 0001:00006db0       gbkext_inv_wctomb          0000000180007db0 f   iconv.obj
 0001:00006fd0       gbk_mbtowc                 0000000180007fd0 f   iconv.obj
 0001:00007270       gbk_wctomb                 0000000180008270 f   iconv.obj
 0001:00007480       cns11643_1_mbtowc          0000000180008480 f   iconv.obj
 0001:00007580       cns11643_3_mbtowc          0000000180008580 f   iconv.obj
 0001:00007620       cns11643_4_mbtowc          0000000180008620 f   iconv.obj
 0001:000076c0       cns11643_inv_wctomb        00000001800086c0 f   iconv.obj
 0001:00007900       big5_mbtowc                0000000180008900 f   iconv.obj
 0001:000079b0       big5_wctomb                00000001800089b0 f   iconv.obj
 0001:00007bb0       ksc5601_mbtowc             0000000180008bb0 f   iconv.obj
 0001:00007c80       ksc5601_wctomb             0000000180008c80 f   iconv.obj
 0001:00007e70       johab_hangul_wctomb        0000000180008e70 f   iconv.obj
 0001:00007f50       euc_jp_mbtowc              0000000180008f50 f   iconv.obj
 0001:00008170       euc_jp_wctomb              0000000180009170 f   iconv.obj
 0001:00008350       sjis_mbtowc                0000000180009350 f   iconv.obj
 0001:00008500       sjis_wctomb                0000000180009500 f   iconv.obj
 0001:000086e0       cp932ext_wctomb            00000001800096e0 f   iconv.obj
 0001:000089f0       cp932_mbtowc               00000001800099f0 f   iconv.obj
 0001:00008c80       cp932_wctomb               0000000180009c80 f   iconv.obj
 0001:00008f60       iso2022_jp_mbtowc          0000000180009f60 f   iconv.obj
 0001:000091f0       iso2022_jp_wctomb          000000018000a1f0 f   iconv.obj
 0001:00009370       iso2022_jp1_reset          000000018000a370 f   iconv.obj
 0001:00009370       iso2022_jp_reset           000000018000a370 f   iconv.obj
 0001:00009370       iso2022_jpms_reset         000000018000a370 f   iconv.obj
 0001:000093a0       iso2022_jp1_mbtowc         000000018000a3a0 f   iconv.obj
 0001:00009680       iso2022_jp1_wctomb         000000018000a680 f   iconv.obj
 0001:00009870       iso2022_jp2_mbtowc         000000018000a870 f   iconv.obj
 0001:00009dac       $LN170                     000000018000adac     iconv.obj
 0001:00009dd0       iso2022_jp2_wctomb         000000018000add0 f   iconv.obj
 0001:0000a51c       $LN150                     000000018000b51c     iconv.obj
 0001:0000a540       $LN149                     000000018000b540     iconv.obj
 0001:0000a5c0       iso2022_jp2_reset          000000018000b5c0 f   iconv.obj
 0001:0000a5f0       cp50221_0212_ext_wctomb    000000018000b5f0 f   iconv.obj
 0001:0000a9c0       iso2022_jpms_mbtowc        000000018000b9c0 f   iconv.obj
 0001:0000aea0       iso2022_jpms_wctomb        000000018000bea0 f   iconv.obj
 0001:0000b310       euc_cn_mbtowc              000000018000c310 f   iconv.obj
 0001:0000b3d0       euc_cn_wctomb              000000018000c3d0 f   iconv.obj
 0001:0000b470       ces_gbk_mbtowc             000000018000c470 f   iconv.obj
 0001:0000b4b0       ces_gbk_wctomb             000000018000c4b0 f   iconv.obj
 0001:0000b650       cp936_mbtowc               000000018000c650 f   iconv.obj
 0001:0000b7a0       cp936_wctomb               000000018000c7a0 f   iconv.obj
 0001:0000b9d0       gb18030ext_mbtowc          000000018000c9d0 f   iconv.obj
 0001:0000bcf8       $LN75                      000000018000ccf8     iconv.obj
 0001:0000bd20       $LN74                      000000018000cd20     iconv.obj
 0001:0000bd80       gb18030ext_wctomb          000000018000cd80 f   iconv.obj
 0001:0000c100       gb18030_mbtowc             000000018000d100 f   iconv.obj
 0001:0000c3a0       gb18030_wctomb             000000018000d3a0 f   iconv.obj
 0001:0000c6c0       iso2022_cn_mbtowc          000000018000d6c0 f   iconv.obj
 0001:0000ca10       iso2022_cn_wctomb          000000018000da10 f   iconv.obj
 0001:0000cc80       iso2022_cn_ext_reset       000000018000dc80 f   iconv.obj
 0001:0000cc80       iso2022_cn_reset           000000018000dc80 f   iconv.obj
 0001:0000cc80       iso2022_kr_reset           000000018000dc80 f   iconv.obj
 0001:0000cca0       iso2022_cn_ext_mbtowc      000000018000dca0 f   iconv.obj
 0001:0000d344       $LN201                     000000018000e344     iconv.obj
 0001:0000d360       iso2022_cn_ext_wctomb      000000018000e360 f   iconv.obj
 0001:0000d8f0       hz_mbtowc                  000000018000e8f0 f   iconv.obj
 0001:0000daa0       hz_wctomb                  000000018000eaa0 f   iconv.obj
 0001:0000db90       hz_reset                   000000018000eb90 f   iconv.obj
 0001:0000dbb0       euc_tw_mbtowc              000000018000ebb0 f   iconv.obj
 0001:0000df5c       $LN87                      000000018000ef5c     iconv.obj
 0001:0000dfa0       euc_tw_wctomb              000000018000efa0 f   iconv.obj
 0001:0000e070       ces_big5_mbtowc            000000018000f070 f   iconv.obj
 0001:0000e0c0       ces_big5_wctomb            000000018000f0c0 f   iconv.obj
 0001:0000e150       cp950ext_wctomb            000000018000f150 f   iconv.obj
 0001:0000e370       cp950_mbtowc               000000018000f370 f   iconv.obj
 0001:0000e560       cp950_wctomb               000000018000f560 f   iconv.obj
 0001:0000e8b0       hkscs1999_mbtowc           000000018000f8b0 f   iconv.obj
 0001:0000e9e0       hkscs1999_wctomb           000000018000f9e0 f   iconv.obj
 0001:0000ece0       big5hkscs1999_mbtowc       000000018000fce0 f   iconv.obj
 0001:0000edf0       big5hkscs1999_wctomb       000000018000fdf0 f   iconv.obj
 0001:0000ef70       big5hkscs1999_reset        000000018000ff70 f   iconv.obj
 0001:0000ef70       big5hkscs2001_reset        000000018000ff70 f   iconv.obj
 0001:0000ef70       big5hkscs2004_reset        000000018000ff70 f   iconv.obj
 0001:0000ef70       big5hkscs2008_reset        000000018000ff70 f   iconv.obj
 0001:0000efa0       hkscs2001_mbtowc           000000018000ffa0 f   iconv.obj
 0001:0000f030       hkscs2001_wctomb           0000000180010030 f   iconv.obj
 0001:0000f930       big5hkscs2001_mbtowc       0000000180010930 f   iconv.obj
 0001:0000fa50       big5hkscs2001_wctomb       0000000180010a50 f   iconv.obj
 0001:0000fbf0       hkscs2004_mbtowc           0000000180010bf0 f   iconv.obj
 0001:0000fcc0       hkscs2004_wctomb           0000000180010cc0 f   iconv.obj
 0001:00010620       big5hkscs2004_mbtowc       0000000180011620 f   iconv.obj
 0001:00010750       big5hkscs2004_wctomb       0000000180011750 f   iconv.obj
 0001:00010920       hkscs2008_wctomb           0000000180011920 f   iconv.obj
 0001:00011040       big5hkscs2008_mbtowc       0000000180012040 f   iconv.obj
 0001:00011200       big5hkscs2008_wctomb       0000000180012200 f   iconv.obj
 0001:000113e0       euc_kr_mbtowc              00000001800123e0 f   iconv.obj
 0001:000114d0       euc_kr_wctomb              00000001800124d0 f   iconv.obj
 0001:00011570       cp949_mbtowc               0000000180012570 f   iconv.obj
 0001:000117f0       cp949_wctomb               00000001800127f0 f   iconv.obj
 0001:00011aa0       johab_mbtowc               0000000180012aa0 f   iconv.obj
 0001:00011d70       johab_wctomb               0000000180012d70 f   iconv.obj
 0001:00011ef0       iso2022_kr_mbtowc          0000000180012ef0 f   iconv.obj
 0001:00012070       iso2022_kr_wctomb          0000000180013070 f   iconv.obj
 0001:000121a0       cp856_mbtowc               00000001800131a0 f   iconv.obj
 0001:000121e0       cp856_wctomb               00000001800131e0 f   iconv.obj
 0001:00012290       cp922_mbtowc               0000000180013290 f   iconv.obj
 0001:00012300       cp922_wctomb               0000000180013300 f   iconv.obj
 0001:00012380       cp1046_mbtowc              0000000180013380 f   iconv.obj
 0001:000123c0       cp1046_wctomb              00000001800133c0 f   iconv.obj
 0001:000124b0       cp1124_mbtowc              00000001800134b0 f   iconv.obj
 0001:000124d0       cp1124_wctomb              00000001800134d0 f   iconv.obj
 0001:00012550       cp1129_mbtowc              0000000180013550 f   iconv.obj
 0001:00012570       cp1129_wctomb              0000000180013570 f   iconv.obj
 0001:000125f0       cp1161_mbtowc              00000001800135f0 f   iconv.obj
 0001:00012620       cp1161_wctomb              0000000180013620 f   iconv.obj
 0001:000126b0       cp1162_mbtowc              00000001800136b0 f   iconv.obj
 0001:000126f0       cp1162_wctomb              00000001800136f0 f   iconv.obj
 0001:00012790       cp1163_mbtowc              0000000180013790 f   iconv.obj
 0001:000127c0       cp1163_wctomb              00000001800137c0 f   iconv.obj
 0001:00012880       dec_kanji_mbtowc           0000000180013880 f   iconv.obj
 0001:00012940       dec_kanji_wctomb           0000000180013940 f   iconv.obj
 0001:000129e0       dec_hanyu_mbtowc           00000001800139e0 f   iconv.obj
 0001:00012b90       dec_hanyu_wctomb           0000000180013b90 f   iconv.obj
 0001:00012ca0       cp437_mbtowc               0000000180013ca0 f   iconv.obj
 0001:00012cc0       cp437_wctomb               0000000180013cc0 f   iconv.obj
 0001:00012de0       cp737_mbtowc               0000000180013de0 f   iconv.obj
 0001:00012e00       cp737_wctomb               0000000180013e00 f   iconv.obj
 0001:00012ee0       cp775_mbtowc               0000000180013ee0 f   iconv.obj
 0001:00012f00       cp775_wctomb               0000000180013f00 f   iconv.obj
 0001:00012fb0       cp852_mbtowc               0000000180013fb0 f   iconv.obj
 0001:00012fd0       cp852_wctomb               0000000180013fd0 f   iconv.obj
 0001:00013070       cp853_mbtowc               0000000180014070 f   iconv.obj
 0001:000130b0       cp853_wctomb               00000001800140b0 f   iconv.obj
 0001:00013180       cp855_mbtowc               0000000180014180 f   iconv.obj
 0001:000131a0       cp855_wctomb               00000001800141a0 f   iconv.obj
 0001:00013250       cp857_mbtowc               0000000180014250 f   iconv.obj
 0001:00013290       cp857_wctomb               0000000180014290 f   iconv.obj
 0001:00013320       cp858_mbtowc               0000000180014320 f   iconv.obj
 0001:00013350       cp858_wctomb               0000000180014350 f   iconv.obj
 0001:00013400       cp860_mbtowc               0000000180014400 f   iconv.obj
 0001:00013420       cp860_wctomb               0000000180014420 f   iconv.obj
 0001:00013520       cp861_mbtowc               0000000180014520 f   iconv.obj
 0001:00013540       cp861_wctomb               0000000180014540 f   iconv.obj
 0001:00013660       cp863_mbtowc               0000000180014660 f   iconv.obj
 0001:00013680       cp863_wctomb               0000000180014680 f   iconv.obj
 0001:000137a0       cp864_mbtowc               00000001800147a0 f   iconv.obj
 0001:00013800       cp864_wctomb               0000000180014800 f   iconv.obj
 0001:00013960       cp865_mbtowc               0000000180014960 f   iconv.obj
 0001:00013980       cp865_wctomb               0000000180014980 f   iconv.obj
 0001:00013aa0       cp869_mbtowc               0000000180014aa0 f   iconv.obj
 0001:00013ae0       cp869_wctomb               0000000180014ae0 f   iconv.obj
 0001:00013ba0       cp1125_mbtowc              0000000180014ba0 f   iconv.obj
 0001:00013be0       cp1125_wctomb              0000000180014be0 f   iconv.obj
 0001:00013ca0       jisx0213_to_ucs4           0000000180014ca0 f   iconv.obj
 0001:00013d50       ucs4_to_jisx0213           0000000180014d50 f   iconv.obj
 0001:00013e20       euc_jisx0213_mbtowc        0000000180014e20 f   iconv.obj
 0001:00013f40       euc_jisx0213_wctomb        0000000180014f40 f   iconv.obj
 0001:00014140       euc_jisx0213_reset         0000000180015140 f   iconv.obj
 0001:00014140       shift_jisx0213_reset       0000000180015140 f   iconv.obj
 0001:00014170       shift_jisx0213_mbtowc      0000000180015170 f   iconv.obj
 0001:000142f0       shift_jisx0213_wctomb      00000001800152f0 f   iconv.obj
 0001:00014570       iso2022_jp3_mbtowc         0000000180015570 f   iconv.obj
 0001:00014930       $LN110                     0000000180015930     iconv.obj
 0001:00014950       iso2022_jp3_flushwc        0000000180015950 f   iconv.obj
 0001:00014980       iso2022_jp3_wctomb         0000000180015980 f   iconv.obj
 0001:00014d80       iso2022_jp3_reset          0000000180015d80 f   iconv.obj
 0001:00014e30       big5_2003_mbtowc           0000000180015e30 f   iconv.obj
 0001:00015110       big5_2003_wctomb           0000000180016110 f   iconv.obj
 0001:000158f0       $LN141                     00000001800168f0     iconv.obj
 0001:0001594c       $LN140                     000000018001694c     iconv.obj
 0001:00015a50       tds565_mbtowc              0000000180016a50 f   iconv.obj
 0001:00015a80       tds565_wctomb              0000000180016a80 f   iconv.obj
 0001:00015b10       atarist_mbtowc             0000000180016b10 f   iconv.obj
 0001:00015b30       atarist_wctomb             0000000180016b30 f   iconv.obj
 0001:00015c70       riscos1_mbtowc             0000000180016c70 f   iconv.obj
 0001:00015ca0       riscos1_wctomb             0000000180016ca0 f   iconv.obj
 0001:00015da0       unicode_transliterate      0000000180016da0 f   iconv.obj
 0001:00016480       uc_to_mb_write_replacement 0000000180017480 f   iconv.obj
 0001:000164d0       mb_to_uc_write_replacement 00000001800174d0 f   iconv.obj
 0001:00016670       unicode_loop_convert       0000000180017670 f   iconv.obj
 0001:000169e4       $LN164                     00000001800179e4     iconv.obj
 0001:000169f0       $LN163                     00000001800179f0     iconv.obj
 0001:00016a04       $LN162                     0000000180017a04     iconv.obj
 0001:00016a10       $LN161                     0000000180017a10     iconv.obj
 0001:00016a30       unicode_loop_reset         0000000180017a30 f   iconv.obj
 0001:00016dbc       $LN23                      0000000180017dbc     iconv.obj
 0001:000171a0       ?load_exe_hook@@YAP6A_JXZIPEAUDelayLoadInfo@@@Z 00000001800181a0 f   win_delay_load_hook.obj
 0001:00017300       $$000000                   0000000180018300     LIBCMT:amdsecgs.obj
 0001:00017334       ?dllmain_crt_dispatch@@YAHQEAUHINSTANCE__@@KQEAX@Z 0000000180018334 f   LIBCMT:dll_dllmain.obj
 0001:00017384       ?dllmain_crt_process_attach@@YAHQEAUHINSTANCE__@@QEAX@Z 0000000180018384 f   LIBCMT:dll_dllmain.obj
 0001:0001749c       ?dllmain_crt_process_detach@@YAH_N@Z 000000018001849c f   LIBCMT:dll_dllmain.obj
 0001:00017520       ?dllmain_dispatch@@YAHQEAUHINSTANCE__@@KQEAX@Z 0000000180018520 f   LIBCMT:dll_dllmain.obj
 0001:0001784c       capture_current_context    000000018001884c f   LIBCMT:gs_report.obj
 0001:000178bc       capture_previous_context   00000001800188bc f   LIBCMT:gs_report.obj
 0001:00018410       $$000000                   0000000180019410     libvcruntime:memset.obj
 0001:000185d0       $$000000                   00000001800195d0     libvcruntime:notify.obj
 0001:00018870       $$000000                   0000000180019870     libvcruntime:memcpy.obj
 0001:00018c78       ?try_get_function@@YAPEAXW4function_id@?A0x81a78551@@QEBDQEBW4module_id@2@2@Z 0000000180019c78 f   libvcruntime:winapi_downlevel.obj
 0001:00018f70       $$000000                   0000000180019f70     libvcruntime:handlers.obj
 0001:00019960       ??$?RV<lambda_d80eeec6fff315bfe5c115232f3240e3>@@AEAV<lambda_6e4b09c48022b2350581041d5f6b0c4c>@@V<lambda_2358e3775559c9db80273638284d5e45>@@@?$__crt_seh_guarded_call@X@@QEAAX$$QEAV<lambda_d80eeec6fff315bfe5c115232f3240e3>@@AEAV<lambda_6e4b09c48022b2350581041d5f6b0c4c>@@$$QEAV<lambda_2358e3775559c9db80273638284d5e45>@@@Z 000000018001a960 f   libucrt:exit.obj
 0001:00019998       ??R<lambda_6e4b09c48022b2350581041d5f6b0c4c>@@QEBA@XZ 000000018001a998 f   libucrt:exit.obj
 0001:00019a5c       ?atexit_exception_filter@@YAHK@Z 000000018001aa5c f   libucrt:exit.obj
 0001:00019a68       ?common_exit@@YAXHW4_crt_exit_cleanup_mode@@W4_crt_exit_return_mode@@@Z 000000018001aa68 f   libucrt:exit.obj
 0001:00019b24       ?exit_or_terminate_process@@YAXI@Z 000000018001ab24 f   libucrt:exit.obj
 0001:00019b70       ?try_cor_exit_process@@YAXI@Z 000000018001ab70 f   libucrt:exit.obj
 0001:00019bf8       ??$parse_command_line@D@@YAXPEADPEAPEAD0PEA_K2@Z 000000018001abf8 f   libucrt:argv_parsing.obj
 0001:00019fa4       ??$common_initialize_environment_nolock@D@@YAHXZ 000000018001afa4 f   libucrt:environment_initialization.obj
 0001:0001a010       ??$create_environment@D@@YAQEAPEADQEAD@Z 000000018001b010 f   libucrt:environment_initialization.obj
 0001:0001a118       ??$free_environment@D@@YAXQEAPEAD@Z 000000018001b118 f   libucrt:environment_initialization.obj
 0001:0001a118       ??$free_environment@_W@@YAXQEAPEA_W@Z 000000018001b118 f   libucrt:environment_initialization.obj
 0001:0001a15c       ??$uninitialize_environment_internal@D@@YAXAEAPEAPEAD@Z 000000018001b15c f   libucrt:environment_initialization.obj
 0001:0001a178       ??$uninitialize_environment_internal@_W@@YAXAEAPEAPEA_W@Z 000000018001b178 f   libucrt:environment_initialization.obj
 0001:0001a1d4       ??$?RV<lambda_7777bce6b2f8c936911f934f8298dc43>@@AEAV<lambda_f03950bc5685219e0bcd2087efbe011e>@@V<lambda_3883c3dff614d5e0c5f61bb1ac94921c>@@@?$__crt_seh_guarded_call@H@@QEAAH$$QEAV<lambda_7777bce6b2f8c936911f934f8298dc43>@@AEAV<lambda_f03950bc5685219e0bcd2087efbe011e>@@$$QEAV<lambda_3883c3dff614d5e0c5f61bb1ac94921c>@@@Z 000000018001b1d4 f   libucrt:onexit.obj
 0001:0001a210       ??R<lambda_f03950bc5685219e0bcd2087efbe011e>@@QEBAHXZ 000000018001b210 f   libucrt:onexit.obj
 0001:0001a38c       initialize_global_variables 000000018001b38c f   libucrt:initialization.obj
 0001:0001a3a0       initialize_c               000000018001b3a0 f   libucrt:initialization.obj
 0001:0001a3c4       initialize_environment     000000018001b3c4 f   libucrt:initialization.obj
 0001:0001a3c4       initialize_global_state_isolation 000000018001b3c4 f   libucrt:initialization.obj
 0001:0001a3c4       report_memory_leaks        000000018001b3c4 f   libucrt:initialization.obj
 0001:0001a3c4       uninitialize_c             000000018001b3c4 f   libucrt:initialization.obj
 0001:0001a3c4       uninitialize_global_state_isolation 000000018001b3c4 f   libucrt:initialization.obj
 0001:0001a3c8       uninitialize_environment   000000018001b3c8 f   libucrt:initialization.obj
 0001:0001a3d8       initialize_pointers        000000018001b3d8 f   libucrt:initialization.obj
 0001:0001a418       uninitialize_vcruntime     000000018001b418 f   libucrt:initialization.obj
 0001:0001a420       uninitialize_allocated_memory 000000018001b420 f   libucrt:initialization.obj
 0001:0001a460       uninitialize_allocated_io_buffers 000000018001b460 f   libucrt:initialization.obj
 0001:0001a5c0       $$000000                   000000018001b5c0     libucrt:strncmp.obj
 0001:0001a900       ??$?RV<lambda_450d765d439847d4c735a33c368b5fc0>@@AEAV<lambda_44731a7d0e6d81c3e6aa82d741081786>@@V<lambda_601a2a7da3b7a96e9554ac7215c4b07c>@@@?$__crt_seh_guarded_call@P6AXH@Z@@QEAAP6AXH@Z$$QEAV<lambda_450d765d439847d4c735a33c368b5fc0>@@AEAV<lambda_44731a7d0e6d81c3e6aa82d741081786>@@$$QEAV<lambda_601a2a7da3b7a96e9554ac7215c4b07c>@@@Z 000000018001b900 f   libucrt:signal.obj
 0001:0001ac04       ??$?RV<lambda_0ae27a3a962d80f24befdcbee591983d>@@AEAV<lambda_8d0ee55de4b1038c4002e0adecdf1839>@@V<lambda_dc504788e8f1664fe9b84e20bfb512f2>@@@?$__crt_seh_guarded_call@X@@QEAAX$$QEAV<lambda_0ae27a3a962d80f24befdcbee591983d>@@AEAV<lambda_8d0ee55de4b1038c4002e0adecdf1839>@@$$QEAV<lambda_dc504788e8f1664fe9b84e20bfb512f2>@@@Z 000000018001bc04 f   libucrt:per_thread_data.obj
 0001:0001ac44       ??$?RV<lambda_2d41944a1d46af3157314b8a01080d33>@@AEAV<lambda_8f455de75cd7d7f24b4096f044d8b9e6>@@V<lambda_aa500f224e6afead328df44964fe2772>@@@?$__crt_seh_guarded_call@X@@QEAAX$$QEAV<lambda_2d41944a1d46af3157314b8a01080d33>@@AEAV<lambda_8f455de75cd7d7f24b4096f044d8b9e6>@@$$QEAV<lambda_aa500f224e6afead328df44964fe2772>@@@Z 000000018001bc44 f   libucrt:per_thread_data.obj
 0001:0001ac84       ??$?RV<lambda_aa87e3671a710a21b5dc78c0bdf72e11>@@AEAV<lambda_92619d2358a28f41a33ba319515a20b9>@@V<lambda_6992ecaafeb10aed2b74cb1fae11a551>@@@?$__crt_seh_guarded_call@X@@QEAAX$$QEAV<lambda_aa87e3671a710a21b5dc78c0bdf72e11>@@AEAV<lambda_92619d2358a28f41a33ba319515a20b9>@@$$QEAV<lambda_6992ecaafeb10aed2b74cb1fae11a551>@@@Z 000000018001bc84 f   libucrt:per_thread_data.obj
 0001:0001accc       ??$?RV<lambda_f2e299630e499de9f9a165e60fcd3db5>@@AEAV<lambda_2ae9d31cdba2644fcbeaf08da7c24588>@@V<lambda_40d01ff24d0e7b3814fdbdcee8eab3c7>@@@?$__crt_seh_guarded_call@X@@QEAAX$$QEAV<lambda_f2e299630e499de9f9a165e60fcd3db5>@@AEAV<lambda_2ae9d31cdba2644fcbeaf08da7c24588>@@$$QEAV<lambda_40d01ff24d0e7b3814fdbdcee8eab3c7>@@@Z 000000018001bccc f   libucrt:per_thread_data.obj
 0001:0001ad2c       ?construct_ptd_array@@YAXQEAU__acrt_ptd@@@Z 000000018001bd2c f   libucrt:per_thread_data.obj
 0001:0001adfc       ?destroy_fls@@YAXPEAX@Z    000000018001bdfc f   libucrt:per_thread_data.obj
 0001:0001ae1c       ?destroy_ptd_array@@YAXQEAU__acrt_ptd@@@Z 000000018001be1c f   libucrt:per_thread_data.obj
 0001:0001af14       ?replace_current_thread_locale_nolock@@YAXQEAU__acrt_ptd@@QEAU__crt_locale_data@@@Z 000000018001bf14 f   libucrt:per_thread_data.obj
 0001:0001b370       ??$?RV<lambda_410d79af7f07d98d83a3f525b3859a53>@@AEAV<lambda_3e16ef9562a7dcce91392c22ab16ea36>@@V<lambda_38119f0e861e05405d8a144b9b982f0a>@@@?$__crt_seh_guarded_call@X@@QEAAX$$QEAV<lambda_410d79af7f07d98d83a3f525b3859a53>@@AEAV<lambda_3e16ef9562a7dcce91392c22ab16ea36>@@$$QEAV<lambda_38119f0e861e05405d8a144b9b982f0a>@@@Z 000000018001c370 f   libucrt:wsetlocale.obj
 0001:0001b588       ?<lambda_invoker_cdecl>@<lambda_a1ce4c8ae42411fd470c77163914f50e>@@CAHPEBX0@Z 000000018001c588 f   libucrt:argv_wildcards.obj
 0001:0001b8a0       ??$common_expand_argv_wildcards@D@@YAHQEAPEADQEAPEAPEAD@Z 000000018001c8a0 f   libucrt:argv_wildcards.obj
 0001:0001baac       ??$copy_and_add_argument_to_buffer@D@@YAHQEBD0_KAEAV?$argument_list@D@?A0x5f5c8891@@@Z 000000018001caac f   libucrt:argv_wildcards.obj
 0001:0001bc34       ??$expand_argument_wildcards@D@@YAHQEAD0AEAV?$argument_list@D@?A0x5f5c8891@@@Z 000000018001cc34 f   libucrt:argv_wildcards.obj
 0001:0001c180       ??$?RV<lambda_efdfa57d1f175319df784efa44bb7b81>@@AEAV<lambda_5f0a4c1567f8adc6734073e5d1e1b35c>@@V<lambda_2e8a7d3640ea6ccb4c2413664c2db6fd>@@@?$__crt_seh_guarded_call@X@@QEAAX$$QEAV<lambda_efdfa57d1f175319df784efa44bb7b81>@@AEAV<lambda_5f0a4c1567f8adc6734073e5d1e1b35c>@@$$QEAV<lambda_2e8a7d3640ea6ccb4c2413664c2db6fd>@@@Z 000000018001d180 f   libucrt:mbctype.obj
 0001:0001c33c       ?getSystemCP@@YAHH@Z       000000018001d33c f   libucrt:mbctype.obj
 0001:0001c3bc       ?setSBCS@@YAXPEAU__crt_multibyte_data@@@Z 000000018001d3bc f   libucrt:mbctype.obj
 0001:0001c44c       ?setSBUpLow@@YAXPEAU__crt_multibyte_data@@@Z 000000018001d44c f   libucrt:mbctype.obj
 0001:0001c630       ?setmbcp_internal@@YAHH_NQEAU__acrt_ptd@@QEAPEAU__crt_multibyte_data@@@Z 000000018001d630 f   libucrt:mbctype.obj
 0001:0001c7f4       ?update_thread_multibyte_data_internal@@YAPEAU__crt_multibyte_data@@QEAU__acrt_ptd@@QEAPEAU1@@Z 000000018001d7f4 f   libucrt:mbctype.obj
 0001:0001cbe4       ?x_ismbbtype_l@@YAHPEAU__crt_locale_pointers@@IHH@Z 000000018001dbe4 f   libucrt:ismbbyte.obj
 0001:0001cf28       ?try_get_function@@YAPEAXW4function_id@?A0x391cf84c@@QEBDQEBW4module_id@2@2@Z 000000018001df28 f   libucrt:winapi_thunks.obj
 0001:0001d4e8       ?initialize_inherited_file_handles_nolock@@YAXXZ 000000018001e4e8 f   libucrt:ioinit.obj
 0001:0001d5d8       ?initialize_stdio_handles_nolock@@YAXXZ 000000018001e5d8 f   libucrt:ioinit.obj
 0001:0001d8e0       ??$?RV<lambda_842d9ff0dc9ef11c61343bbaebe7f885>@@AEAV<lambda_c5860995281e5c4ce005b3de8f5874ee>@@V<lambda_d90129c13df834fdcbf8d2b88dafcf2d>@@@?$__crt_seh_guarded_call@X@@QEAAX$$QEAV<lambda_842d9ff0dc9ef11c61343bbaebe7f885>@@AEAV<lambda_c5860995281e5c4ce005b3de8f5874ee>@@$$QEAV<lambda_d90129c13df834fdcbf8d2b88dafcf2d>@@@Z 000000018001e8e0 f   libucrt:fflush.obj
 0001:0001d97c       ??$?RV<lambda_886d6c58226a84441f68b9f2b8217b83>@@AEAV<lambda_ab61a845afdef5b7c387490eaf3616ee>@@V<lambda_f7f22ab5edc0698d5f6905b0d3f44752>@@@?$__crt_seh_guarded_call@X@@QEAAX$$QEAV<lambda_886d6c58226a84441f68b9f2b8217b83>@@AEAV<lambda_ab61a845afdef5b7c387490eaf3616ee>@@$$QEAV<lambda_f7f22ab5edc0698d5f6905b0d3f44752>@@@Z 000000018001e97c f   libucrt:fflush.obj
 0001:0001da5c       ?common_flush_all@@YAH_N@Z 000000018001ea5c f   libucrt:fflush.obj
 0001:0001e488       ?free_crt_array_internal@@YAXQEAPEBX_K@Z 000000018001f488 f   libucrt:inittime.obj
 0001:0001e84c       fallbackMethod             000000018001f84c f   libucrt:strpbrk.obj
 0001:0001ec14       $LN78                      000000018001fc14     libucrt:strpbrk.obj
 0001:0001ec50       $LN77                      000000018001fc50     libucrt:strpbrk.obj
 0001:0001ec90       $LN76                      000000018001fc90     libucrt:strpbrk.obj
 0001:0001ed6c       ?__acrt_LCMapStringA_stat@@YAHPEAU__crt_locale_pointers@@PEB_WKPEBDHPEADHHH@Z 000000018001fd6c f   libucrt:lcmapstringa.obj
 0001:0001f11c       ?initialize_multibyte@@YAHXZ 000000018002011c f   libucrt:multibyte_initializer.obj
 0001:0001f5c0       ??$?RV<lambda_a37b2b86f63e897a80ea819b0eb08c01>@@AEAV<lambda_38ce7e780aa69e748d6df282ebc68efe>@@V<lambda_99fb1378e971ab6e7edea83e3a7a83a2>@@@?$__crt_seh_guarded_call@H@@QEAAH$$QEAV<lambda_a37b2b86f63e897a80ea819b0eb08c01>@@AEAV<lambda_38ce7e780aa69e748d6df282ebc68efe>@@$$QEAV<lambda_99fb1378e971ab6e7edea83e3a7a83a2>@@@Z 00000001800205c0 f   libucrt:commit.obj
 0001:0001f6e0       ?write_double_translated_ansi_nolock@@YA?AUwrite_result@?A0x17268360@@HQEBDI@Z 00000001800206e0 f   libucrt:write.obj
 0001:0001fbb0       ?write_text_ansi_nolock@@YA?AUwrite_result@?A0x17268360@@HQEBDI@Z 0000000180020bb0 f   libucrt:write.obj
 0001:0001fcb4       ?write_text_utf16le_nolock@@YA?AUwrite_result@?A0x17268360@@HQEBDI@Z 0000000180020cb4 f   libucrt:write.obj
 0001:0001fdd0       ?write_text_utf8_nolock@@YA?AUwrite_result@?A0x17268360@@HQEBDI@Z 0000000180020dd0 f   libucrt:write.obj
 0001:000206c8       ??$common_lseek_nolock@_J@@YA_JH_JH@Z 00000001800216c8 f   libucrt:lseek.obj
 0001:00020a70       $$000000                   0000000180021a70     libucrt:log10.obj
 0001:0002114c       ??$?RV<lambda_751a882b2c74d4b022dec766aa51a29a>@@AEAV<lambda_628dfdc04ba53c8bfc02c9951375f3f5>@@V<lambda_f6c7be5f7998530c34de24c7437d6b54>@@@?$__crt_seh_guarded_call@H@@QEAAH$$QEAV<lambda_751a882b2c74d4b022dec766aa51a29a>@@AEAV<lambda_628dfdc04ba53c8bfc02c9951375f3f5>@@$$QEAV<lambda_f6c7be5f7998530c34de24c7437d6b54>@@@Z 000000018002214c f   libucrt:close.obj
 0001:00021340       _call_matherr              0000000180022340 f   libucrt:libm_error.obj
 0001:000213a8       _exception_enabled         00000001800223a8 f   libucrt:libm_error.obj
 0001:00021620       _log_special_common        0000000180022620 f   libucrt:log_special.obj
 0001:000216c0       $$000000                   00000001800226c0     libucrt:fpsr.obj
 0001:00022330       $$000000                   0000000180023330     LIBCMT:chkstk.obj
 0001:000223a0       $$000000                   00000001800233a0     libvcruntime:memcmp.obj
 0001:00022480       $$000000                   0000000180023480     LIBCMT:guard_dispatch.obj
 0001:000224a0       ?fin$0@?0??dllmain_crt_process_attach@@YAHQEAUHINSTANCE__@@QEAX@Z@4HA 00000001800234a0 f   LIBCMT:dll_dllmain.obj
 0001:000224b7       ?fin$0@?0??dllmain_crt_process_detach@@YAH_N@Z@4HA 00000001800234b7 f   LIBCMT:dll_dllmain.obj
 0001:000224d0       ?fin$1@?0??dllmain_crt_process_detach@@YAH_N@Z@4HA 00000001800234d0 f   LIBCMT:dll_dllmain.obj
 0001:000224e4       ?filt$0@?0??dllmain_dispatch@@YAHQEAUHINSTANCE__@@KQEAX@Z@4HA 00000001800234e4 f   LIBCMT:dll_dllmain.obj
 0001:0002251a       __scrt_is_nonwritable_in_current_image$filt$0 000000018002351a f   LIBCMT:utility.obj
 0001:00022532       __DestructExceptionObject$filt$0 0000000180023532 f   libvcruntime:ehhelpers.obj
 0001:000225c8       ?fin$0@?0???$?RV<lambda_0ae27a3a962d80f24befdcbee591983d>@@AEAV<lambda_8d0ee55de4b1038c4002e0adecdf1839>@@V<lambda_dc504788e8f1664fe9b84e20bfb512f2>@@@?$__crt_seh_guarded_call@X@@QEAAX$$QEAV<lambda_0ae27a3a962d80f24befdcbee591983d>@@AEAV<lambda_8d0ee55de4b1038c4002e0adecdf1839>@@$$QEAV<lambda_dc504788e8f1664fe9b84e20bfb512f2>@@@Z@4HA 00000001800235c8 f   libucrt:per_thread_data.obj
 0001:000225c8       ?fin$0@?0???$?RV<lambda_2d41944a1d46af3157314b8a01080d33>@@AEAV<lambda_8f455de75cd7d7f24b4096f044d8b9e6>@@V<lambda_aa500f224e6afead328df44964fe2772>@@@?$__crt_seh_guarded_call@X@@QEAAX$$QEAV<lambda_2d41944a1d46af3157314b8a01080d33>@@AEAV<lambda_8f455de75cd7d7f24b4096f044d8b9e6>@@$$QEAV<lambda_aa500f224e6afead328df44964fe2772>@@@Z@4HA 00000001800235c8 f   libucrt:per_thread_data.obj
 0001:000225c8       ?fin$0@?0???$?RV<lambda_aa87e3671a710a21b5dc78c0bdf72e11>@@AEAV<lambda_92619d2358a28f41a33ba319515a20b9>@@V<lambda_6992ecaafeb10aed2b74cb1fae11a551>@@@?$__crt_seh_guarded_call@X@@QEAAX$$QEAV<lambda_aa87e3671a710a21b5dc78c0bdf72e11>@@AEAV<lambda_92619d2358a28f41a33ba319515a20b9>@@$$QEAV<lambda_6992ecaafeb10aed2b74cb1fae11a551>@@@Z@4HA 00000001800235c8 f   libucrt:per_thread_data.obj
 0001:000225c8       ?fin$0@?0???$?RV<lambda_f2e299630e499de9f9a165e60fcd3db5>@@AEAV<lambda_2ae9d31cdba2644fcbeaf08da7c24588>@@V<lambda_40d01ff24d0e7b3814fdbdcee8eab3c7>@@@?$__crt_seh_guarded_call@X@@QEAAX$$QEAV<lambda_f2e299630e499de9f9a165e60fcd3db5>@@AEAV<lambda_2ae9d31cdba2644fcbeaf08da7c24588>@@$$QEAV<lambda_40d01ff24d0e7b3814fdbdcee8eab3c7>@@@Z@4HA 00000001800235c8 f   libucrt:per_thread_data.obj
 0001:000225c8       ?fin$0@?0???$?RV<lambda_efdfa57d1f175319df784efa44bb7b81>@@AEAV<lambda_5f0a4c1567f8adc6734073e5d1e1b35c>@@V<lambda_2e8a7d3640ea6ccb4c2413664c2db6fd>@@@?$__crt_seh_guarded_call@X@@QEAAX$$QEAV<lambda_efdfa57d1f175319df784efa44bb7b81>@@AEAV<lambda_5f0a4c1567f8adc6734073e5d1e1b35c>@@$$QEAV<lambda_2e8a7d3640ea6ccb4c2413664c2db6fd>@@@Z@4HA 00000001800235c8 f   libucrt:mbctype.obj
 0001:000225c8       ?fin$0@?0???$?RV<lambda_450d765d439847d4c735a33c368b5fc0>@@AEAV<lambda_44731a7d0e6d81c3e6aa82d741081786>@@V<lambda_601a2a7da3b7a96e9554ac7215c4b07c>@@@?$__crt_seh_guarded_call@P6AXH@Z@@QEAAP6AXH@Z$$QEAV<lambda_450d765d439847d4c735a33c368b5fc0>@@AEAV<lambda_44731a7d0e6d81c3e6aa82d741081786>@@$$QEAV<lambda_601a2a7da3b7a96e9554ac7215c4b07c>@@@Z@4HA 00000001800235c8 f   libucrt:signal.obj
 0001:000225c8       ?fin$0@?0???$?RV<lambda_d80eeec6fff315bfe5c115232f3240e3>@@AEAV<lambda_6e4b09c48022b2350581041d5f6b0c4c>@@V<lambda_2358e3775559c9db80273638284d5e45>@@@?$__crt_seh_guarded_call@X@@QEAAX$$QEAV<lambda_d80eeec6fff315bfe5c115232f3240e3>@@AEAV<lambda_6e4b09c48022b2350581041d5f6b0c4c>@@$$QEAV<lambda_2358e3775559c9db80273638284d5e45>@@@Z@4HA 00000001800235c8 f   libucrt:exit.obj
 0001:000225c8       ?fin$0@?0???$?RV<lambda_7777bce6b2f8c936911f934f8298dc43>@@AEAV<lambda_f03950bc5685219e0bcd2087efbe011e>@@V<lambda_3883c3dff614d5e0c5f61bb1ac94921c>@@@?$__crt_seh_guarded_call@H@@QEAAH$$QEAV<lambda_7777bce6b2f8c936911f934f8298dc43>@@AEAV<lambda_f03950bc5685219e0bcd2087efbe011e>@@$$QEAV<lambda_3883c3dff614d5e0c5f61bb1ac94921c>@@@Z@4HA 00000001800235c8 f   libucrt:onexit.obj
 0001:000225e2       ?filt$0@?0???R<lambda_6e4b09c48022b2350581041d5f6b0c4c>@@QEBA@XZ@4HA 00000001800235e2 f   libucrt:exit.obj
 0001:000225fd       raise$fin$0                00000001800235fd f   libucrt:signal.obj
 0001:0002261e       ?fin$0@?0???$?RV<lambda_410d79af7f07d98d83a3f525b3859a53>@@AEAV<lambda_3e16ef9562a7dcce91392c22ab16ea36>@@V<lambda_38119f0e861e05405d8a144b9b982f0a>@@@?$__crt_seh_guarded_call@X@@QEAAX$$QEAV<lambda_410d79af7f07d98d83a3f525b3859a53>@@AEAV<lambda_3e16ef9562a7dcce91392c22ab16ea36>@@$$QEAV<lambda_38119f0e861e05405d8a144b9b982f0a>@@@Z@4HA 000000018002361e f   libucrt:wsetlocale.obj
 0001:00022638       ?fin$0@?0??update_thread_multibyte_data_internal@@YAPEAU__crt_multibyte_data@@QEAU__acrt_ptd@@QEAPEAU1@@Z@4HA 0000000180023638 f   libucrt:mbctype.obj
 0001:00022651       __acrt_initialize_lowio$fin$0 0000000180023651 f   libucrt:ioinit.obj
 0001:00022651       __acrt_lowio_ensure_fh_exists$fin$0 0000000180023651 f   libucrt:osfinfo.obj
 0001:0002266a       _query_new_handler$fin$0   000000018002366a f   libucrt:new_handler.obj
 0001:00022680       ?fin$0@?0???$?RV<lambda_842d9ff0dc9ef11c61343bbaebe7f885>@@AEAV<lambda_c5860995281e5c4ce005b3de8f5874ee>@@V<lambda_d90129c13df834fdcbf8d2b88dafcf2d>@@@?$__crt_seh_guarded_call@X@@QEAAX$$QEAV<lambda_842d9ff0dc9ef11c61343bbaebe7f885>@@AEAV<lambda_c5860995281e5c4ce005b3de8f5874ee>@@$$QEAV<lambda_d90129c13df834fdcbf8d2b88dafcf2d>@@@Z@4HA 0000000180023680 f   libucrt:fflush.obj
 0001:0002269b       ?fin$0@?0???$?RV<lambda_886d6c58226a84441f68b9f2b8217b83>@@AEAV<lambda_ab61a845afdef5b7c387490eaf3616ee>@@V<lambda_f7f22ab5edc0698d5f6905b0d3f44752>@@@?$__crt_seh_guarded_call@X@@QEAAX$$QEAV<lambda_886d6c58226a84441f68b9f2b8217b83>@@AEAV<lambda_ab61a845afdef5b7c387490eaf3616ee>@@$$QEAV<lambda_f7f22ab5edc0698d5f6905b0d3f44752>@@@Z@4HA 000000018002369b f   libucrt:fflush.obj
 0001:000226b8       __acrt_update_thread_locale_data$fin$0 00000001800236b8 f   libucrt:locale_refcounting.obj
 0001:000226d1       ?fin$0@?0???$?RV<lambda_751a882b2c74d4b022dec766aa51a29a>@@AEAV<lambda_628dfdc04ba53c8bfc02c9951375f3f5>@@V<lambda_f6c7be5f7998530c34de24c7437d6b54>@@@?$__crt_seh_guarded_call@H@@QEAAH$$QEAV<lambda_751a882b2c74d4b022dec766aa51a29a>@@AEAV<lambda_628dfdc04ba53c8bfc02c9951375f3f5>@@$$QEAV<lambda_f6c7be5f7998530c34de24c7437d6b54>@@@Z@4HA 00000001800236d1 f   libucrt:close.obj
 0001:000226d1       ?fin$0@?0???$?RV<lambda_a37b2b86f63e897a80ea819b0eb08c01>@@AEAV<lambda_38ce7e780aa69e748d6df282ebc68efe>@@V<lambda_99fb1378e971ab6e7edea83e3a7a83a2>@@@?$__crt_seh_guarded_call@H@@QEAAH$$QEAV<lambda_a37b2b86f63e897a80ea819b0eb08c01>@@AEAV<lambda_38ce7e780aa69e748d6df282ebc68efe>@@$$QEAV<lambda_99fb1378e971ab6e7edea83e3a7a83a2>@@@Z@4HA 00000001800236d1 f   libucrt:commit.obj
 0001:000226eb       _write$fin$0               00000001800236eb f   libucrt:write.obj
 0001:00022702       _fcloseall$fin$0           0000000180023702 f   libucrt:closeall.obj
 0001:0002271b       fclose$fin$0               000000018002371b f   libucrt:fclose.obj
 0001:00022733       _ctrlfp$filt$0             0000000180023733 f   libucrt:fpctrl.obj
 0001:00022760       _IsNonwritableInCurrentImage$filt$0 0000000180023760 f   LIBCMT:pesect.obj
 0002:000002e8       GS_ExceptionPointers       00000001800242e8     LIBCMT:gs_report.obj
 0002:00000320       ?tokenTable@@3QBUStringLiteral@@B 0000000180024320     libvcruntime:undname.obj
 0002:00000420       ?nameTable@@3QBUStringLiteral@@B 0000000180024420     libvcruntime:undname.obj
 0002:00000950       ?rttiTable@@3QBUStringLiteral@@B 0000000180024950     libvcruntime:undname.obj
 0002:000009a0       ?IndirectionName@@3QBUStringLiteral@@B 00000001800249a0     libvcruntime:undname.obj
 0002:00000a00       ?PrefixName@@3QBUStringLiteral@@B 0000000180024a00     libvcruntime:undname.obj
 0002:000010d8       ?module_names@?A0x81a78551@@3QBQEB_WB 00000001800250d8     libvcruntime:winapi_downlevel.obj
 0002:00001198       ?candidate_modules@?1??try_get_FlsAlloc@@YAP6AKP6AXPEAX@Z@ZXZ@4QBW4module_id@?A0x81a78551@@B 0000000180025198     libvcruntime:winapi_downlevel.obj
 0002:000011b0       ?candidate_modules@?1??try_get_FlsFree@@YAP6AHK@ZXZ@4QBW4module_id@?A0x81a78551@@B 00000001800251b0     libvcruntime:winapi_downlevel.obj
 0002:000011c0       ?candidate_modules@?1??try_get_FlsGetValue@@YAP6APEAXK@ZXZ@4QBW4module_id@?A0x81a78551@@B 00000001800251c0     libvcruntime:winapi_downlevel.obj
 0002:000011d8       ?candidate_modules@?1??try_get_FlsSetValue@@YAP6AHKPEAX@ZXZ@4QBW4module_id@?A0x81a78551@@B 00000001800251d8     libvcruntime:winapi_downlevel.obj
 0002:000011f0       ?candidate_modules@?1??try_get_InitializeCriticalSectionEx@@YAP6AHPEAU_RTL_CRITICAL_SECTION@@KK@ZXZ@4QBW4module_id@?A0x81a78551@@B 00000001800251f0     libvcruntime:winapi_downlevel.obj
 0002:00001220       ?errtable@@3QBUerrentry@?A0x31fdb9ec@@B 0000000180025220     libucrt:errno.obj
 0002:00001490       __acrt_initializers        0000000180025490     libucrt:initialization.obj
 0002:00001c10       ?_mb_locale_names@@3QBQEB_WB 0000000180025c10     libucrt:mbctype.obj
 0002:00001c70       ?module_names@?A0x391cf84c@@3QBQEB_WB 0000000180025c70     libucrt:winapi_thunks.obj
 0002:00002178       ?candidate_modules@?1??try_get_AreFileApisANSI@@YAP6AHXZXZ@4QBW4module_id@?A0x391cf84c@@B 0000000180026178     libucrt:winapi_thunks.obj
 0002:00002190       ?candidate_modules@?1??try_get_FlsAlloc@@YAP6AKP6AXPEAX@Z@ZXZ@4QBW4module_id@?A0x391cf84c@@B 0000000180026190     libucrt:winapi_thunks.obj
 0002:00002198       ?candidate_modules@?1??try_get_FlsFree@@YAP6AHK@ZXZ@4QBW4module_id@?A0x391cf84c@@B 0000000180026198     libucrt:winapi_thunks.obj
 0002:000021a0       ?candidate_modules@?1??try_get_FlsGetValue@@YAP6APEAXK@ZXZ@4QBW4module_id@?A0x391cf84c@@B 00000001800261a0     libucrt:winapi_thunks.obj
 0002:000021a8       ?candidate_modules@?1??try_get_FlsSetValue@@YAP6AHKPEAX@ZXZ@4QBW4module_id@?A0x391cf84c@@B 00000001800261a8     libucrt:winapi_thunks.obj
 0002:000021b0       ?candidate_modules@?1??try_get_InitializeCriticalSectionEx@@YAP6AHPEAU_RTL_CRITICAL_SECTION@@KK@ZXZ@4QBW4module_id@?A0x391cf84c@@B 00000001800261b0     libucrt:winapi_thunks.obj
 0002:000021b8       ?candidate_modules@?1??try_get_LCMapStringEx@@YAP6AHPEB_WK0HPEA_WHPEAU_nlsversioninfo@@PEAX_J@ZXZ@4QBW4module_id@?A0x391cf84c@@B 00000001800261b8     libucrt:winapi_thunks.obj
 0002:000021d0       ?candidate_modules@?1??try_get_LocaleNameToLCID@@YAP6AKPEB_WK@ZXZ@4QBW4module_id@?A0x391cf84c@@B 00000001800261d0     libucrt:winapi_thunks.obj
 0002:000021ec       ?candidate_modules@?1??try_get_AppPolicyGetProcessTerminationMethod@@YAP6AJPEAXPEAW4AppPolicyProcessTerminationMethod@@@ZXZ@4QBW4module_id@?A0x391cf84c@@B 00000001800261ec     libucrt:winapi_thunks.obj
 0002:00002830       ?LcidToLocaleNameTable@?A0x881e4c05@@3QBULcidToLocaleName@1@B 0000000180026830     libucrt:lcidtoname_downlevel.obj
 0002:00004290       ?LocaleNameToIndexTable@?A0x881e4c05@@3QBULocaleNameIndex@1@B 0000000180028290     libucrt:lcidtoname_downlevel.obj
 0002:00005b30       __real_ninf                0000000180029b30     libucrt:log10.obj
 0002:00005b40       __real_inf                 0000000180029b40     libucrt:log10.obj
 0002:00005b50       __real_neg_qnan            0000000180029b50     libucrt:log10.obj
 0002:00005b60       __real_qnanbit             0000000180029b60     libucrt:log10.obj
 0002:00005b70       __int_1023                 0000000180029b70     libucrt:log10.obj
 0002:00005b80       __mask_001                 0000000180029b80     libucrt:log10.obj
 0002:00005b90       __mask_mant                0000000180029b90     libucrt:log10.obj
 0002:00005ba0       __mask_mant_top8           0000000180029ba0     libucrt:log10.obj
 0002:00005bb0       __mask_mant9               0000000180029bb0     libucrt:log10.obj
 0002:00005bc0       __real_log10_e             0000000180029bc0     libucrt:log10.obj
 0002:00005bd0       __real_log10_e_lead        0000000180029bd0     libucrt:log10.obj
 0002:00005be0       __real_log10_e_tail        0000000180029be0     libucrt:log10.obj
 0002:00005bf0       __real_log10_2_lead        0000000180029bf0     libucrt:log10.obj
 0002:00005c00       __real_log10_2_tail        0000000180029c00     libucrt:log10.obj
 0002:00005c10       __real_two                 0000000180029c10     libucrt:log10.obj
 0002:00005c20       __real_one                 0000000180029c20     libucrt:log10.obj
 0002:00005c30       __real_half                0000000180029c30     libucrt:log10.obj
 0002:00005c40       __mask_100                 0000000180029c40     libucrt:log10.obj
 0002:00005c50       __real_1_over_512          0000000180029c50     libucrt:log10.obj
 0002:00005c60       __real_1_over_2            0000000180029c60     libucrt:log10.obj
 0002:00005c70       __real_1_over_3            0000000180029c70     libucrt:log10.obj
 0002:00005c80       __real_1_over_4            0000000180029c80     libucrt:log10.obj
 0002:00005c90       __real_1_over_5            0000000180029c90     libucrt:log10.obj
 0002:00005ca0       __real_1_over_6            0000000180029ca0     libucrt:log10.obj
 0002:00005cb0       __real_neg_1023            0000000180029cb0     libucrt:log10.obj
 0002:00005cc0       __mask_2045                0000000180029cc0     libucrt:log10.obj
 0002:00005cd0       __real_threshold           0000000180029cd0     libucrt:log10.obj
 0002:00005ce0       __real_near_one_lt         0000000180029ce0     libucrt:log10.obj
 0002:00005cf0       __real_near_one_gt         0000000180029cf0     libucrt:log10.obj
 0002:00005d00       __real_min_norm            0000000180029d00     libucrt:log10.obj
 0002:00005d10       __real_notsign             0000000180029d10     libucrt:log10.obj
 0002:00005d20       __real_ca1                 0000000180029d20     libucrt:log10.obj
 0002:00005d30       __real_ca2                 0000000180029d30     libucrt:log10.obj
 0002:00005d40       __real_ca3                 0000000180029d40     libucrt:log10.obj
 0002:00005d50       __real_ca4                 0000000180029d50     libucrt:log10.obj
 0002:00005d60       __mask_lower               0000000180029d60     libucrt:log10.obj
 0002:00005d70       __flag_x_zero              0000000180029d70     libucrt:log10.obj
 0002:00005d74       __flag_x_neg               0000000180029d74     libucrt:log10.obj
 0002:00005d78       __flag_x_nan               0000000180029d78     libucrt:log10.obj
 0002:000075d0       __real@433fffffffffffff    000000018002b5d0     libucrt:fpsr.obj
 0002:000075d8       __real@c33fffffffffffff    000000018002b5d8     libucrt:fpsr.obj
 0002:000077d0       cp50221_0208_ext_page33    000000018002b7d0     iconv.obj
 0002:000078a0       hkscs2001_uni2indx_page289 000000018002b8a0     iconv.obj
 0002:0000791c       hkscs2008_uni2indx_page289 000000018002b91c     iconv.obj
 0002:00007920       nextstep_2uni              000000018002b920     iconv.obj
 0002:00007a20       mac_romania_page00         000000018002ba20     iconv.obj
 0002:00007b18       isoir165ext_uni2indx_pageff 000000018002bb18     iconv.obj
 0002:00007b2c       hkscs1999_uni2indx_pagef9  000000018002bb2c     iconv.obj
 0002:00007b30       cp1133_page0e              000000018002bb30     iconv.obj
 0002:00007b90       iso8859_14_2uni            000000018002bb90     iconv.obj
 0002:00007c50       mac_iceland_page20         000000018002bc50     iconv.obj
 0002:00007c88       cp864_page00               000000018002bc88     iconv.obj
 0002:00007c90       jisx0208_2charset          000000018002bc90     iconv.obj
 0002:0000b250       jisx0213_to_ucs_main       000000018002f250     iconv.obj
 0002:00010a70       cns11643_15_2uni_page21    0000000180034a70     iconv.obj
 0002:00014278       atarist_page03             0000000180038278     iconv.obj
 0002:000142b0       hkscs2001_uni2indx_page70  00000001800382b0     iconv.obj
 0002:000143e0       tcvn_page00                00000001800383e0     iconv.obj
 0002:000144f8       iso8859_7_page00           00000001800384f8     iconv.obj
 0002:00014518       mac_hebrew_pagefb          0000000180038518     iconv.obj
 0002:00014550       ?asso_values@?1??aliases_hash@@9@9 0000000180038550     iconv.obj
 0002:00014650       uhc_1_2charset_main        0000000180038650     iconv.obj
 0002:000146b0       cp850_2uni                 00000001800386b0     iconv.obj
 0002:000147b0       hkscs2004_uni2indx_page290 00000001800387b0     iconv.obj
 0002:000147d0       isoir165ext_uni2indx_page9e 00000001800387d0     iconv.obj
 0002:00014834       tcvn_comb_table            0000000180038834     iconv.obj
 0002:00014840       uhc_2_2uni_pagea1          0000000180038840     iconv.obj
 0002:00015478       mac_iceland_page21         0000000180039478     iconv.obj
 0002:00015480       isoir165ext_uni2indx_page00 0000000180039480     iconv.obj
 0002:00015500       georgian_ps_page01         0000000180039500     iconv.obj
 0002:00015548       cp950ext_uni2indx_page60   0000000180039548     iconv.obj
 0002:00015560       mac_thai_page0e            0000000180039560     iconv.obj
 0002:000155c0       koi8_r_page22              00000001800395c0     iconv.obj
 0002:00015610       mulelao_2uni               0000000180039610     iconv.obj
 0002:000156d0       cp775_page25               00000001800396d0     iconv.obj
 0002:00015778       cp775_page20               0000000180039778     iconv.obj
 0002:00015780       cp855_page25               0000000180039780     iconv.obj
 0002:00015828       jamo_initial               0000000180039828     iconv.obj
 0002:00015848       cp866_page22               0000000180039848     iconv.obj
 0002:00015850       mac_iceland_2uni           0000000180039850     iconv.obj
 0002:00015950       cp856_page25               0000000180039950     iconv.obj
 0002:000159f8       hkscs2004_uni2indx_page270 00000001800399f8     iconv.obj
 0002:00015a30       cp862_page22               0000000180039a30     iconv.obj
 0002:00015a80       hkscs2008_uni2indx_page25d 0000000180039a80     iconv.obj
 0002:00015ab0       big5_2uni_pagea1           0000000180039ab0     iconv.obj
 0002:00018a88       hkscs2004_uni2indx_page28b 000000018003ca88     iconv.obj
 0002:00018ab8       hkscs2008_uni2indx_page90  000000018003cab8     iconv.obj
 0002:00018ad0       big5_uni2indx_page24       000000018003cad0     iconv.obj
 0002:00018b64       hkscs2004_uni2indx_page24b 000000018003cb64     iconv.obj
 0002:00018b68       mac_turkish_page21         000000018003cb68     iconv.obj
 0002:00018b70       viscii_page1e              000000018003cb70     iconv.obj
 0002:00018bd0       cns11643_inv_uni2indx_page24 000000018003cbd0     iconv.obj
 0002:00018c64       hkscs2001_uni2indx_page287 000000018003cc64     iconv.obj
 0002:00018c68       gb2312_uni2indx_pageff     000000018003cc68     iconv.obj
 0002:00018ca4       hkscs2001_uni2indx_page271 000000018003cca4     iconv.obj
 0002:00018ca8       hkscs2004_uni2indx_page85  000000018003cca8     iconv.obj
 0002:00018cd0       isoir165ext_uni2indx_page7e 000000018003ccd0     iconv.obj
 0002:00019204       hkscs2001_uni2indx_page245 000000018003d204     iconv.obj
 0002:00019208       mac_ukraine_page21         000000018003d208     iconv.obj
 0002:00019220       hkscs2001_uni2indx_page85  000000018003d220     iconv.obj
 0002:00019264       cp1258_comb_table          000000018003d264     iconv.obj
 0002:00019270       mac_cyrillic_2uni          000000018003d270     iconv.obj
 0002:00019370       cp922_page01               000000018003d370     iconv.obj
 0002:00019390       ksc5601_uni2indx_pageac    000000018003d390     iconv.obj
 0002:00019e78       pt154_page20               000000018003de78     iconv.obj
 0002:00019e90       cp1131_2uni                000000018003de90     iconv.obj
 0002:00019f90       atarist_2uni               000000018003df90     iconv.obj
 0002:0001a090       koi8_ru_page00             000000018003e090     iconv.obj
 0002:0001a0e8       mac_croatian_page02        000000018003e0e8     iconv.obj
 0002:0001a108       hkscs2008_uni2indx_page258 000000018003e108     iconv.obj
 0002:0001a140       hkscs1999_2charset         000000018003e140     iconv.obj
 0002:0001c5f4       big5_uni2indx_pagefa       00000001800405f4     iconv.obj
 0002:0001c5f8       cp1257_page02              00000001800405f8     iconv.obj
 0002:0001c618       hkscs2004_uni2indx_page25a 0000000180040618     iconv.obj
 0002:0001c630       hkscs1999_2uni_pagef9      0000000180040630     iconv.obj
 0002:0001cd90       uhc_1_2charset             0000000180040d90     iconv.obj
 0002:0001e3d0       cns11643_6_2uni_page21     00000001800423d0     iconv.obj
 0002:000215b8       cp1253_page20              00000001800455b8     iconv.obj
 0002:000215e8       hkscs2008_uni2indx_page260 00000001800455e8     iconv.obj
 0002:00021600       cns11643_15_2uni_upages    0000000180045600     iconv.obj
 0002:000219f8       georgian_academy_page20    00000001800459f8     iconv.obj
 0002:00021a28       cp1129_page03              0000000180045a28     iconv.obj
 0002:00021a50       gbkext2_2uni_pagea8        0000000180045a50     iconv.obj
 0002:00025af0       cp1256_2uni                0000000180049af0     iconv.obj
 0002:00025bf0       cp1252_page01              0000000180049bf0     iconv.obj
 0002:00025c38       hkscs2008_uni2indx_page34  0000000180049c38     iconv.obj
 0002:00025c78       cp936ext_pagefe            0000000180049c78     iconv.obj
 0002:00025ca8       hkscs1999_uni2indx_page04  0000000180049ca8     iconv.obj
 0002:00025cc0       cns11643_2_2uni_page21     0000000180049cc0     iconv.obj
 0002:00029888       georgian_academy_page02    000000018004d888     iconv.obj
 0002:000298a8       mac_cyrillic_page21        000000018004d8a8     iconv.obj
 0002:000298c0       cns11643_4b_2uni_page40    000000018004d8c0     iconv.obj
 0002:0002bb00       cjk_variants_indx          000000018004fb00     iconv.obj
 0002:00035f00       hkscs2004_uni2indx_page9f  0000000180059f00     iconv.obj
 0002:00035f30       cp857_page25               0000000180059f30     iconv.obj
 0002:00035fd8       iso8859_14_page01_0        0000000180059fd8     iconv.obj
 0002:00035ff8       hkscs2008_uni2indx_page21d 0000000180059ff8     iconv.obj
 0002:00036010       uhc_2_uni2indx_pagec8      000000018005a010     iconv.obj
 0002:00036400       hkscs1999_uni2indx_page21  000000018005a400     iconv.obj
 0002:00036440       hkscs1999_2uni_upages      000000018005a440     iconv.obj
 0002:00037378       cp1161_page00              000000018005b378     iconv.obj
 0002:00037388       cp1125_page00              000000018005b388     iconv.obj
 0002:000373a0       cp775_2uni                 000000018005b3a0     iconv.obj
 0002:000374a0       cp50221_0208_ext_page21    000000018005b4a0     iconv.obj
 0002:00037500       hkscs1999_uni2indx_page34  000000018005b500     iconv.obj
 0002:00038ff0       jisx0212_2uni_page30       000000018005cff0     iconv.obj
 0002:0003bd48       mac_iceland_page02         000000018005fd48     iconv.obj
 0002:0003bd68       mac_greek_page20           000000018005fd68     iconv.obj
 0002:0003bd90       hkscs2008_uni2indx_page73  000000018005fd90     iconv.obj
 0002:0003be08       riscos1_page20             000000018005fe08     iconv.obj
 0002:0003be38       cp853_page02               000000018005fe38     iconv.obj
 0002:0003be40       cp864_2uni_2               000000018005fe40     iconv.obj
 0002:0003bf40       iso8859_4_page00           000000018005ff40     iconv.obj
 0002:0003c020       cp922_2uni_3               0000000180060020     iconv.obj
 0002:0003c040       gb2312_uni2indx_page9e     0000000180060040     iconv.obj
 0002:0003c0b0       cp1251_page04              00000001800600b0     iconv.obj
 0002:0003c148       gb18030ext_page2f          0000000180060148     iconv.obj
 0002:0003c168       cp866_page00               0000000180060168     iconv.obj
 0002:0003c180       cp866_page25               0000000180060180     iconv.obj
 0002:0003c228       cp1258_page03              0000000180060228     iconv.obj
 0002:0003c250       mac_romania_page22         0000000180060250     iconv.obj
 0002:0003c2b8       hkscs2008_uni2indx_page9f  00000001800602b8     iconv.obj
 0002:0003c2f0       cp1131_page04              00000001800602f0     iconv.obj
 0002:0003c388       hkscs2008_uni2indx_page62  0000000180060388     iconv.obj
 0002:0003c3c0       gb18030ext_page43          00000001800603c0     iconv.obj
 0002:0003c430       cp922_2uni_2               0000000180060430     iconv.obj
 0002:0003c450       cp932ext_uni2indx_page7d   0000000180060450     iconv.obj
 0002:0003c500       hkscs2001_uni2indx_page5a  0000000180060500     iconv.obj
 0002:0003c678       cp852_page02               0000000180060678     iconv.obj
 0002:0003c698       hkscs2004_uni2indx_page7d  0000000180060698     iconv.obj
 0002:0003c6c0       mac_arabic_page06          00000001800606c0     iconv.obj
 0002:0003c790       cp737_page03               0000000180060790     iconv.obj
 0002:0003c7e0       cp860_page00               00000001800607e0     iconv.obj
 0002:0003c840       armscii_8_2uni             0000000180060840     iconv.obj
 0002:0003c900       cp437_2uni                 0000000180060900     iconv.obj
 0002:0003ca00       gbkext_inv_uni2indx_pagef9 0000000180060a00     iconv.obj
 0002:0003ca50       translit_page31_5          0000000180060a50     iconv.obj
 0002:0003ce70       translit_pagefe            0000000180060e70     iconv.obj
 0002:0003cec0       mac_roman_page02           0000000180060ec0     iconv.obj
 0002:0003cee0       uhc_2_2charset_main        0000000180060ee0     iconv.obj
 0002:0003cf48       hkscs2004_uni2indx_page29e 0000000180060f48     iconv.obj
 0002:0003cf78       hkscs2001_uni2indx_page299 0000000180060f78     iconv.obj
 0002:0003cf90       cp862_page25               0000000180060f90     iconv.obj
 0002:0003d038       hkscs2004_uni2indx_page232 0000000180061038     iconv.obj
 0002:0003d050       hkscs2008_uni2indx_page235 0000000180061050     iconv.obj
 0002:0003d0b8       georgian_ps_page10         00000001800610b8     iconv.obj
 0002:0003d0e0       cp864_pagefe               00000001800610e0     iconv.obj
 0002:0003d168       cp932ext_uni2indx_page24   0000000180061168     iconv.obj
 0002:0003d188       jamo_final_index_inverse   0000000180061188     iconv.obj
 0002:0003d1a8       hkscs2001_uni2indx_page40  00000001800611a8     iconv.obj
 0002:0003d1c8       cp437_page23               00000001800611c8     iconv.obj
 0002:0003d1e0       cp1255_page00              00000001800611e0     iconv.obj
 0002:0003d238       hkscs2004_uni2indx_page6e  0000000180061238     iconv.obj
 0002:0003d250       cp1257_page00              0000000180061250     iconv.obj
 0002:0003d330       hkscs2001_2uni_page8c      0000000180061330     iconv.obj
 0002:0003d428       georgian_ps_page00         0000000180061428     iconv.obj
 0002:0003d448       hkscs2001_uni2indx_page65  0000000180061448     iconv.obj
 0002:0003d470       mac_romania_2uni           0000000180061470     iconv.obj
 0002:0003d570       cp1257_2uni                0000000180061570     iconv.obj
 0002:0003d670       koi8_r_2uni                0000000180061670     iconv.obj
 0002:0003d770       cp874_2uni                 0000000180061770     iconv.obj
 0002:0003d870       cp865_page25               0000000180061870     iconv.obj
 0002:0003d918       mac_romania_page21         0000000180061918     iconv.obj
 0002:0003d920       hkscs1999_uni2indx_page200 0000000180061920     iconv.obj
 0002:0003fda0       gb18030ext_page2e          0000000180063da0     iconv.obj
 0002:0003fe40       hkscs2004_uni2indx_page4a  0000000180063e40     iconv.obj
 0002:0003fe70       translit_page22            0000000180063e70     iconv.obj
 0002:0003ff30       koi8_t_page04              0000000180063f30     iconv.obj
 0002:00040020       translit_page21            0000000180064020     iconv.obj
 0002:000401d0       ksc5601_uni2indx_page20    00000001800641d0     iconv.obj
 0002:00040370       hkscs2008_uni2indx_page231 0000000180064370     iconv.obj
 0002:000403c8       hp_roman8_page01           00000001800643c8     iconv.obj
 0002:00040400       cp862_page00               0000000180064400     iconv.obj
 0002:00040460       isoir165ext_2charset       0000000180064460     iconv.obj
 0002:00040b38       hkscs2004_uni2indx_page26e 0000000180064b38     iconv.obj
 0002:00040b60       isoir165ext_2uni_page7a    0000000180064b60     iconv.obj
 0002:00040f10       big5_uni2indx_pagefe       0000000180064f10     iconv.obj
 0002:00040f70       iso8859_16_2uni            0000000180064f70     iconv.obj
 0002:00041030       cns11643_7_2uni_page21     0000000180065030     iconv.obj
 0002:00044348       armscii_8_page00_1         0000000180068348     iconv.obj
 0002:00044368       hkscs2001_uni2indx_page256 0000000180068368     iconv.obj
 0002:00044390       iso8859_5_2uni             0000000180068390     iconv.obj
 0002:00044450       jisx0213_to_ucs_combining  0000000180068450     iconv.obj
 0002:000444b8       ?conversion_lists@?1??iso2022_jp2_wctomb@@9@9 00000001800684b8     iconv.obj
 0002:000444c8       hkscs1999_uni2indx_page1e  00000001800684c8     iconv.obj
 0002:00044500       cp1161_2uni                0000000180068500     iconv.obj
 0002:000445c0       cp865_2uni                 00000001800685c0     iconv.obj
 0002:000446c0       gb2312_uni2indx_page4e     00000001800686c0     iconv.obj
 0002:00045a80       cp737_2uni                 0000000180069a80     iconv.obj
 0002:00045b80       jisx0208_uni2indx_page30   0000000180069b80     iconv.obj
 0002:00045bc0       cp874_page0e               0000000180069bc0     iconv.obj
 0002:00045c20       cp1255_comp_table_data     0000000180069c20     iconv.obj
 0002:00045cb0       riscos1_2uni               0000000180069cb0     iconv.obj
 0002:00045cf0       cns11643_3_2uni_page64     0000000180069cf0     iconv.obj
 0002:00045f38       cp50221_0212_ext_pageff    0000000180069f38     iconv.obj
 0002:00045f40       cp862_2uni                 0000000180069f40     iconv.obj
 0002:00046040       direct_tab                 000000018006a040     iconv.obj
 0002:00046050       all_encodings              000000018006a050     iconv.obj
 0002:00047720       hkscs2004_uni2indx_page5f  000000018006b720     iconv.obj
 0002:00047730       cp932ext_2charset          000000018006b730     iconv.obj
 0002:00047ac8       georgian_ps_page02         000000018006bac8     iconv.obj
 0002:00047ae8       hkscs2008_uni2indx_page52  000000018006bae8     iconv.obj
 0002:00047b00       cp1255_decomp_table        000000018006bb00     iconv.obj
 0002:00047c10       cp1256_page01              000000018006bc10     iconv.obj
 0002:00047c58       rk1048_page21              000000018006bc58     iconv.obj
 0002:00047c70       translit_page31            000000018006bc70     iconv.obj
 0002:00047d30       koi8_r_page25              000000018006bd30     iconv.obj
 0002:00047dd8       hkscs2008_uni2indx_page88  000000018006bdd8     iconv.obj
 0002:00047e00       mulelao_page0e             000000018006be00     iconv.obj
 0002:00047e60       cns11643_4b_2uni_upages    000000018006be60     iconv.obj
 0002:00048240       cp863_page25               000000018006c240     iconv.obj
 0002:000482e8       hkscs2008_uni2indx_page54  000000018006c2e8     iconv.obj
 0002:00048300       cp1258_2uni                000000018006c300     iconv.obj
 0002:00048400       gb2312_uni2indx_page20     000000018006c400     iconv.obj
 0002:00048598       mac_cyrillic_page00        000000018006c598     iconv.obj
 0002:000485b8       cp861_page23               000000018006c5b8     iconv.obj
 0002:000485d0       hkscs1999_uni2indx_page00  000000018006c5d0     iconv.obj
 0002:00048688       cp1133_page00              000000018006c688     iconv.obj
 0002:00048698       hkscs2008_uni2indx_page8b  000000018006c698     iconv.obj
 0002:000486c0       cp950ext_uni2indx_page5a   000000018006c6c0     iconv.obj
 0002:00048700       cp861_page25               000000018006c700     iconv.obj
 0002:000487a8       atarist_page23             000000018006c7a8     iconv.obj
 0002:000487c0       cp869_2uni                 000000018006c7c0     iconv.obj
 0002:000488c0       hkscs2004_uni2indx_page43  000000018006c8c0     iconv.obj
 0002:000489d8       cp1258_comp_bases          000000018006c9d8     iconv.obj
 0002:00048a08       armscii_8_page20           000000018006ca08     iconv.obj
 0002:00048a20       jisx0208_uni2indx_page4e   000000018006ca20     iconv.obj
 0002:00049e90       translit_page03            000000018006de90     iconv.obj
 0002:00049ef0       gbkext_inv_uni2indx_page30 000000018006def0     iconv.obj
 0002:00049f30       hkscs2008_uni2indx_page2ad 000000018006df30     iconv.obj
 0002:00049f70       cp863_page00               000000018006df70     iconv.obj
 0002:00049fd0       translit_page02_1          000000018006dfd0     iconv.obj
 0002:0004a020       mac_roman_page22           000000018006e020     iconv.obj
 0002:0004a088       cp1255_comb_table          000000018006e088     iconv.obj
 0002:0004a090       cp1046_page00              000000018006e090     iconv.obj
 0002:0004a100       cns11643_inv_uni2indx_page2f8 000000018006e100     iconv.obj
 0002:0004a188       armscii_8_page00           000000018006e188     iconv.obj
 0002:0004a190       jisx0212_2charset          000000018006e190     iconv.obj
 0002:0004d0f8       cp950ext_uni2indx_page7c   00000001800710f8     iconv.obj
 0002:0004d128       cp936ext_page01            0000000180071128     iconv.obj
 0002:0004d148       cp50221_0212_ext_page7d    0000000180071148     iconv.obj
 0002:0004d180       jisx0208_uni2indx_page20   0000000180071180     iconv.obj
 0002:0004d248       hkscs2008_uni2indx_page92  0000000180071248     iconv.obj
 0002:0004d250       cp860_page22               0000000180071250     iconv.obj
 0002:0004d2a0       viscii_2uni_2              00000001800712a0     iconv.obj
 0002:0004d3a0       riscos1_page22             00000001800713a0     iconv.obj
 0002:0004d3b0       cp1253_page03              00000001800713b0     iconv.obj
 0002:0004d400       viscii_page00              0000000180071400     iconv.obj
 0002:0004d4f8       jisx0212_uni2indx_page21   00000001800714f8     iconv.obj
 0002:0004d508       rk1048_page20              0000000180071508     iconv.obj
 0002:0004d538       jamo_medial_index_inverse  0000000180071538     iconv.obj
 0002:0004d550       atarist_page22             0000000180071550     iconv.obj
 0002:0004d5b0       iso8859_15_2uni            00000001800715b0     iconv.obj
 0002:0004d5f0       cp855_2uni                 00000001800715f0     iconv.obj
 0002:0004d6f0       isoir165ext_uni2indx_page4e 00000001800716f0     iconv.obj
 0002:0004e2b0       hkscs2008_uni2indx_page38  00000001800722b0     iconv.obj
 0002:0004e2d0       hkscs2001_uni2indx_page61  00000001800722d0     iconv.obj
 0002:0004e2e0       mac_greek_page03           00000001800722e0     iconv.obj
 0002:0004e330       cp864_2uni_1               0000000180072330     iconv.obj
 0002:0004e350       hkscs1999_uni2indx_pageff  0000000180072350     iconv.obj
 0002:0004e390       cp1046_pagefe              0000000180072390     iconv.obj
 0002:0004e420       uhc_1_2uni_page81          0000000180072420     iconv.obj
 0002:0004fa60       georgian_ps_2uni_1         0000000180073a60     iconv.obj
 0002:0004faa0       cp932ext_uni2indx_page32   0000000180073aa0     iconv.obj
 0002:0004fb18       hkscs2004_uni2indx_page81  0000000180073b18     iconv.obj
 0002:0004fb38       cp1253_page00              0000000180073b38     iconv.obj
 0002:0004fb58       hkscs2001_uni2indx_page67  0000000180073b58     iconv.obj
 0002:0004fb78       cp1254_page20              0000000180073b78     iconv.obj
 0002:0004fba8       hkscs2001_uni2indx_page35  0000000180073ba8     iconv.obj
 0002:0004fbc0       cp737_page22               0000000180073bc0     iconv.obj
 0002:0004fc10       mac_croatian_2uni          0000000180073c10     iconv.obj
 0002:0004fd10       ksc5601_uni2indx_pagef9    0000000180073d10     iconv.obj
 0002:0004fd58       cp1251_page00              0000000180073d58     iconv.obj
 0002:0004fd78       hkscs2001_uni2indx_page26b 0000000180073d78     iconv.obj
 0002:0004fd80       gb18030ext_page49          0000000180073d80     iconv.obj
 0002:0004fe70       mac_turkish_page22         0000000180073e70     iconv.obj
 0002:0004fed8       iso8859_16_page20          0000000180073ed8     iconv.obj
 0002:0004fee0       cns11643_5_2uni_upages     0000000180073ee0     iconv.obj
 0002:00050278       isoir165ext_uni2indx_page30 0000000180074278     iconv.obj
 0002:00050288       cp865_page03               0000000180074288     iconv.obj
 0002:000502c0       hkscs2008_uni2indx_page57  00000001800742c0     iconv.obj
 0002:00050328       mac_hebrew_page20          0000000180074328     iconv.obj
 0002:00050340       hkscs2008_uni2indx_page84  0000000180074340     iconv.obj
 0002:000503c8       mac_romania_page20         00000001800743c8     iconv.obj
 0002:00050400       euc_jisx0213_comp_table_data 0000000180074400     iconv.obj
 0002:00050468       mac_romania_page02         0000000180074468     iconv.obj
 0002:00050488       hkscs2004_uni2indx_page23b 0000000180074488     iconv.obj
 0002:00050490       hkscs2008_uni2indx_page66  0000000180074490     iconv.obj
 0002:000504f8       iso8859_2_page02           00000001800744f8     iconv.obj
 0002:00050518       hkscs2001_uni2indx_page227 0000000180074518     iconv.obj
 0002:00050520       cp850_page00               0000000180074520     iconv.obj
 0002:00050580       hkscs2001_uni2indx_page2a1 0000000180074580     iconv.obj
 0002:000505f0       hkscs2008_uni2indx_page3e  00000001800745f0     iconv.obj
 0002:00050630       nextstep_page00            0000000180074630     iconv.obj
 0002:00050690       cp1251_2uni                0000000180074690     iconv.obj
 0002:00050790       translit_pagefb            0000000180074790     iconv.obj
 0002:00050830       stringpool2_contents       0000000180074830     iconv.obj
 0002:00050aa8       cp1131_page00              0000000180074aa8     iconv.obj
 0002:00050ac0       hkscs2004_uni2indx_page59  0000000180074ac0     iconv.obj
 0002:00050be0       cp1255_2uni                0000000180074be0     iconv.obj
 0002:00050ce0       mac_hebrew_page05          0000000180074ce0     iconv.obj
 0002:00050d20       hkscs2008_uni2indx_page241 0000000180074d20     iconv.obj
 0002:00050d40       gb2312_uni2indx_page00     0000000180074d40     iconv.obj
 0002:00050e58       koi8_t_page21              0000000180074e58     iconv.obj
 0002:00050e70       pt154_page04               0000000180074e70     iconv.obj
 0002:00050f60       mac_iceland_page01         0000000180074f60     iconv.obj
 0002:00050fc8       mac_roman_pagefb           0000000180074fc8     iconv.obj
 0002:00050fd0       iso8859_3_page01           0000000180074fd0     iconv.obj
 0002:00051048       cp932ext_uni2indx_page30   0000000180075048     iconv.obj
 0002:00051050       viet_comp_table_data       0000000180075050     iconv.obj
 0002:00051378       hkscs2001_uni2indx_page251 0000000180075378     iconv.obj
 0002:000513b0       aliases                    00000001800753b0     iconv.obj
 0002:00053080       cns11643_inv_uni2indx_page20 0000000180077080     iconv.obj
 0002:00053130       hkscs2004_uni2indx_page27b 0000000180077130     iconv.obj
 0002:000531a8       cp50221_0208_ext_page22    00000001800771a8     iconv.obj
 0002:000531c8       koi8_u_page23              00000001800771c8     iconv.obj
 0002:000531d0       hkscs2001_uni2indx_page57  00000001800771d0     iconv.obj
 0002:00053248       hkscs2008_uni2indx_page224 0000000180077248     iconv.obj
 0002:00053280       uhc_1_2uni_main_page81     0000000180077280     iconv.obj
 0002:00053300       cp1046_2uni                0000000180077300     iconv.obj
 0002:00053400       cns11643_1_2uni_page44     0000000180077400     iconv.obj
 0002:00055e38       cp50221_0212_ext_page76    0000000180079e38     iconv.obj
 0002:00055e58       koi8_r_page23              0000000180079e58     iconv.obj
 0002:00055e60       cp861_page00               0000000180079e60     iconv.obj
 0002:00055ec0       mac_roman_2uni             0000000180079ec0     iconv.obj
 0002:00055fc0       cp869_page20               0000000180079fc0     iconv.obj
 0002:00055fd0       mac_croatian_page00        0000000180079fd0     iconv.obj
 0002:000560c8       gb18030ext_page4d          000000018007a0c8     iconv.obj
 0002:000560e8       cp1163_page20              000000018007a0e8     iconv.obj
 0002:000560f0       gb2312_2uni_page21         000000018007a0f0     iconv.obj
 0002:00056770       translit_page2f8           000000018007a770     iconv.obj
 0002:00056bb0       koi8_u_page22              000000018007abb0     iconv.obj
 0002:00056c00       cp50221_0208_ext_2uni      000000018007ac00     iconv.obj
 0002:00056cc0       gb18030ext_2uni_pagea9     000000018007acc0     iconv.obj
 0002:00056ce0       translit_page24            000000018007ace0     iconv.obj
 0002:00056ec0       cp50221_0212_ext_page6d    000000018007aec0     iconv.obj
 0002:00056ed0       cp950ext_uni2indx_page58   000000018007aed0     iconv.obj
 0002:00056f00       gb18030ext_page36          000000018007af00     iconv.obj
 0002:00056f30       nextstep_page02            000000018007af30     iconv.obj
 0002:00056f50       viet_decomp_table          000000018007af50     iconv.obj
 0002:00057598       viet_comp_table            000000018007b598     iconv.obj
 0002:000575c0       shift_jisx0213_comp_table_data 000000018007b5c0     iconv.obj
 0002:00057628       translit_page1e_2          000000018007b628     iconv.obj
 0002:00057638       mac_cyrillic_page20        000000018007b638     iconv.obj
 0002:00057650       cp853_page25               000000018007b650     iconv.obj
 0002:000576f8       mac_croatian_page20        000000018007b6f8     iconv.obj
 0002:00057730       koi8_ru_page04             000000018007b730     iconv.obj
 0002:000577c8       cp864_page22               000000018007b7c8     iconv.obj
 0002:00057800       mac_iceland_page22         000000018007b800     iconv.obj
 0002:00057868       mac_ukraine_page20         000000018007b868     iconv.obj
 0002:00057880       translit_data              000000018007b880     iconv.obj
 0002:000606f0       hkscs2001_uni2indx_page9f  00000001800846f0     iconv.obj
 0002:00060720       hkscs2001_uni2indx_page42  0000000180084720     iconv.obj
 0002:00060750       cns11643_3_2uni_upages     0000000180084750     iconv.obj
 0002:00060970       hkscs2001_uni2indx_page25c 0000000180084970     iconv.obj
 0002:000609c0       cp1256_page06              00000001800849c0     iconv.obj
 0002:00060a90       translit_pagef9            0000000180084a90     iconv.obj
 0002:00060d70       cp950ext_2charset          0000000180084d70     iconv.obj
 0002:00060dc8       iso8859_8_page05           0000000180084dc8     iconv.obj
 0002:00060de8       gb18030ext_page47_2        0000000180084de8     iconv.obj
 0002:00060e18       nextstep_page20            0000000180084e18     iconv.obj
 0002:00060e50       big5_uni2indx_page20       0000000180084e50     iconv.obj
 0002:00060f00       cp863_page22               0000000180084f00     iconv.obj
 0002:00060f50       big5_2uni_pagec9           0000000180084f50     iconv.obj
 0002:00064b18       cp50221_0208_ext_page30    0000000180088b18     iconv.obj
 0002:00064b20       cns11643_inv_uni2indx_page02 0000000180088b20     iconv.obj
 0002:00064b98       iso8859_15_page01          0000000180088b98     iconv.obj
 0002:00064bc8       mac_croatian_page21        0000000180088bc8     iconv.obj
 0002:00064bd0       hkscs2004_uni2indx_page56  0000000180088bd0     iconv.obj
 0002:00064c10       hkscs2004_2charset         0000000180088c10     iconv.obj
 0002:00064d08       gb18030ext_page9f          0000000180088d08     iconv.obj
 0002:00064d28       cp50221_0212_ext_pagefa    0000000180088d28     iconv.obj
 0002:00064d50       hkscs1999_uni2indx_page23  0000000180088d50     iconv.obj
 0002:00064df0       cp932ext_uni2indx_page83   0000000180088df0     iconv.obj
 0002:00064ea0       tds565_page00              0000000180088ea0     iconv.obj
 0002:00064ee0       hkscs2001_uni2indx_page249 0000000180088ee0     iconv.obj
 0002:00064f28       hkscs2001_uni2indx_page21d 0000000180088f28     iconv.obj
 0002:00064f58       hkscs2004_uni2indx_page79  0000000180088f58     iconv.obj
 0002:00064f90       big5_uni2indx_page4e       0000000180088f90     iconv.obj
 0002:00066400       gb18030ext_page4c          000000018008a400     iconv.obj
 0002:00066470       mac_greek_page00           000000018008a470     iconv.obj
 0002:000664d0       cp857_2uni                 000000018008a4d0     iconv.obj
 0002:000665d0       georgian_ps_page20         000000018008a5d0     iconv.obj
 0002:00066600       cp1256_page00              000000018008a600     iconv.obj
 0002:00066660       hkscs2004_uni2indx_page3f  000000018008a660     iconv.obj
 0002:00066720       hkscs2004_2uni_upages      000000018008a720     iconv.obj
 0002:00066858       cp1254_2uni_3              000000018008a858     iconv.obj
 0002:00066878       cp50221_0212_ext_page21    000000018008a878     iconv.obj
 0002:00066888       cp737_page00               000000018008a888     iconv.obj
 0002:000668a0       cns11643_inv_uni2indx_page00 000000018008a8a0     iconv.obj
 0002:000668e0       atarist_page01             000000018008a8e0     iconv.obj
 0002:00066948       mac_roman_page20           000000018008a948     iconv.obj
 0002:00066980       hkscs2001_2uni_upages      000000018008a980     iconv.obj
 0002:00066ad8       cp1252_page02              000000018008aad8     iconv.obj
 0002:00066af8       gbkext_inv_uni2indx_page02 000000018008aaf8     iconv.obj
 0002:00066b30       ksc5601_uni2indx_page00    000000018008ab30     iconv.obj
 0002:00066c48       iso8859_16_page02          000000018008ac48     iconv.obj
 0002:00066c50       mac_ukraine_page22         000000018008ac50     iconv.obj
 0002:00066cb8       nextstep_pagefb            000000018008acb8     iconv.obj
 0002:00066cc0       cp853_2uni                 000000018008acc0     iconv.obj
 0002:00066dc0       iso8859_13_2uni            000000018008adc0     iconv.obj
 0002:00066e80       tcvn_2uni_2                000000018008ae80     iconv.obj
 0002:00066f80       cp856_page05               000000018008af80     iconv.obj
 0002:00066fa0       jisx0213_from_ucs_level2_2indx 000000018008afa0     iconv.obj
 0002:00069a00       cp437_page22               000000018008da00     iconv.obj
 0002:00069a50       cns11643_5_2uni_page21     000000018008da50     iconv.obj
 0002:0006dd88       translit_page2a            0000000180091d88     iconv.obj
 0002:0006dd98       hkscs2001_uni2indx_page88  0000000180091d98     iconv.obj
 0002:0006ddc0       iso8859_13_page00          0000000180091dc0     iconv.obj
 0002:0006dea0       hkscs2008_uni2indx_page6a  0000000180091ea0     iconv.obj
 0002:0006deb0       cp1129_page00              0000000180091eb0     iconv.obj
 0002:0006dfc0       uhc_2_2uni_main_pagea1     0000000180091fc0     iconv.obj
 0002:0006e058       gb18030ext_page47_1        0000000180092058     iconv.obj
 0002:0006e078       hkscs2004_uni2indx_page221 0000000180092078     iconv.obj
 0002:0006e0b0       cp869_page03               00000001800920b0     iconv.obj
 0002:0006e100       hkscs2001_uni2indx_page26d 0000000180092100     iconv.obj
 0002:0006e120       cp932ext_2uni_pageed       0000000180092120     iconv.obj
 0002:0006e410       gbkext_inv_2charset        0000000180092410     iconv.obj
 0002:000753e8       hkscs2001_uni2indx_page28d 00000001800993e8     iconv.obj
 0002:00075418       cp950ext_uni2indx_page88   0000000180099418     iconv.obj
 0002:00075450       cp852_page00               0000000180099450     iconv.obj
 0002:00075530       hkscs2001_uni2indx_page4e  0000000180099530     iconv.obj
 0002:00075620       big5_2003_2charset_page25  0000000180099620     iconv.obj
 0002:00075640       mac_thai_2uni              0000000180099640     iconv.obj
 0002:00075740       iso8859_7_2uni             0000000180099740     iconv.obj
 0002:00075800       jisx0212_uni2indx_page00   0000000180099800     iconv.obj
 0002:00075918       mac_roman_page21           0000000180099918     iconv.obj
 0002:00075920       cp1258_page00              0000000180099920     iconv.obj
 0002:00075978       mac_turkish_page20         0000000180099978     iconv.obj
 0002:000759a0       hkscs2008_2uni_page87      00000001800999a0     iconv.obj
 0002:00075aa0       cp932ext_uni2indx_page5f   0000000180099aa0     iconv.obj
 0002:000761c8       hkscs2004_uni2indx_page2a1 000000018009a1c8     iconv.obj
 0002:000761f8       cp1133_2uni_2              000000018009a1f8     iconv.obj
 0002:00076218       ksc5601_uni2indx_pageff    000000018009a218     iconv.obj
 0002:00076258       hkscs2001_uni2indx_page23c 000000018009a258     iconv.obj
 0002:00076278       koi8_t_page20              000000018009a278     iconv.obj
 0002:000762a8       mac_centraleurope_page22_1 000000018009a2a8     iconv.obj
 0002:000762b0       hp_roman8_page00           000000018009a2b0     iconv.obj
 0002:00076310       hkscs1999_uni2indx_page297 000000018009a310     iconv.obj
 0002:00076700       cp1250_page02              000000018009a700     iconv.obj
 0002:00076720       isoir165ext_2uni_page2b    000000018009a720     iconv.obj
 0002:00076ad0       ksc5601_2uni_page4a        000000018009aad0     iconv.obj
 0002:00079100       hkscs2004_uni2indx_page235 000000018009d100     iconv.obj
 0002:00079148       hkscs2004_uni2indx_page3b  000000018009d148     iconv.obj
 0002:00079170       cp1125_page25              000000018009d170     iconv.obj
 0002:00079218       iso8859_14_page01_1        000000018009d218     iconv.obj
 0002:00079228       cp874_page20               000000018009d228     iconv.obj
 0002:00079240       mac_hebrew_page00          000000018009d240     iconv.obj
 0002:000792a0       atarist_page05             000000018009d2a0     iconv.obj
 0002:000792c0       big5_2003_2uni_pagef9      000000018009d2c0     iconv.obj
 0002:00079318       mac_thai_page00            000000018009d318     iconv.obj
 0002:00079338       koi8_ru_page23             000000018009d338     iconv.obj
 0002:00079340       gb2312_2uni_page30         000000018009d340     iconv.obj
 0002:0007c820       gbkext_inv_uni2indx_pagefe 00000001800a0820     iconv.obj
 0002:0007c8a0       mac_ukraine_page00         00000001800a08a0     iconv.obj
 0002:0007c8c0       jisx0208_2uni_page21       00000001800a08c0     iconv.obj
 0002:0007ce28       xbase64_tab                00000001800a0e28     iconv.obj
 0002:0007ce38       hkscs2001_uni2indx_page26f 00000001800a0e38     iconv.obj
 0002:0007ce68       hp_roman8_page02           00000001800a0e68     iconv.obj
 0002:0007ce88       hkscs2004_uni2indx_page289 00000001800a0e88     iconv.obj
 0002:0007cea8       tcvn_comp_bases            00000001800a0ea8     iconv.obj
 0002:0007ced8       cp950ext_uni2indx_page78   00000001800a0ed8     iconv.obj
 0002:0007cf00       mac_hebrew_2uni            00000001800a0f00     iconv.obj
 0002:0007d000       cp1124_page04              00000001800a1000     iconv.obj
 0002:0007d098       hkscs2001_uni2indx_page241 00000001800a1098     iconv.obj
 0002:0007d0b0       iso8859_14_page00          00000001800a10b0     iconv.obj
 0002:0007d110       cns11643_3_2uni_page21     00000001800a1110     iconv.obj
 0002:00080118       cp1256_page20              00000001800a4118     iconv.obj
 0002:00080150       mac_cyrillic_page04        00000001800a4150     iconv.obj
 0002:000801b0       cp50221_0208_ext_page32_1  00000001800a41b0     iconv.obj
 0002:000801c0       hkscs1999_2uni_pagec6      00000001800a41c0     iconv.obj
 0002:00080570       cp50221_0212_ext_page97    00000001800a4570     iconv.obj
 0002:00080590       hkscs2004_uni2indx_page4c  00000001800a4590     iconv.obj
 0002:000805f8       cp1254_page00              00000001800a45f8     iconv.obj
 0002:00080628       hkscs2001_uni2indx_page219 00000001800a4628     iconv.obj
 0002:00080650       cp1125_page04              00000001800a4650     iconv.obj
 0002:000806e8       cp932ext_uni2indx_pageff   00000001800a46e8     iconv.obj
 0002:00080728       hkscs2004_uni2indx_page242 00000001800a4728     iconv.obj
 0002:00080758       hkscs2004_uni2indx_page227 00000001800a4758     iconv.obj
 0002:00080780       ksc5601_2uni_page30        00000001800a4780     iconv.obj
 0002:000819e0       cp932ext_2uni_page87       00000001800a59e0     iconv.obj
 0002:00081a98       cp863_page23               00000001800a5a98     iconv.obj
 0002:00081ab0       cp932ext_uni2indx_page4e   00000001800a5ab0     iconv.obj
 0002:00081c98       translit_page20_3          00000001800a5c98     iconv.obj
 0002:00081ca8       cp862_page03               00000001800a5ca8     iconv.obj
 0002:00081ce0       cns11643_1_2uni_page42     00000001800a5ce0     iconv.obj
 0002:00081d28       cp1258_page02              00000001800a5d28     iconv.obj
 0002:00081d48       cp50221_0208_ext_page24    00000001800a5d48     iconv.obj
 0002:00081d60       iso8859_6_2uni             00000001800a5d60     iconv.obj
 0002:00081e20       hkscs2008_uni2indx_page27b 00000001800a5e20     iconv.obj
 0002:00081e40       tds565_2uni                00000001800a5e40     iconv.obj
 0002:00081ec0       cp865_page00               00000001800a5ec0     iconv.obj
 0002:00081f20       jisx0212_2uni_page22       00000001800a5f20     iconv.obj
 0002:00081fc8       cp1124_page00              00000001800a5fc8     iconv.obj
 0002:00081fd8       cp860_page03               00000001800a5fd8     iconv.obj
 0002:00082010       hkscs2008_2uni_upages      00000001800a6010     iconv.obj
 0002:000820d8       jisx0212_uni2indx_pageff   00000001800a60d8     iconv.obj
 0002:000820f0       mac_turkish_page00         00000001800a60f0     iconv.obj
 0002:00082150       gb18030ext_page46          00000001800a6150     iconv.obj
 0002:00082190       cns11643_inv_uni2indx_page200 00000001800a6190     iconv.obj
 0002:00084b48       hkscs2004_uni2indx_page74  00000001800a8b48     iconv.obj
 0002:00084b70       iso8859_3_2uni             00000001800a8b70     iconv.obj
 0002:00084c30       cp864_page25               00000001800a8c30     iconv.obj
 0002:00084c70       iso8859_16_page00          00000001800a8c70     iconv.obj
 0002:00084d50       hkscs2001_uni2indx_page82  00000001800a8d50     iconv.obj
 0002:00084d90       koi8_u_page00              00000001800a8d90     iconv.obj
 0002:00084de8       hkscs2004_uni2indx_page34  00000001800a8de8     iconv.obj
 0002:00084e00       hp_roman8_2uni             00000001800a8e00     iconv.obj
 0002:00084ec0       iso8859_7_page03           00000001800a8ec0     iconv.obj
 0002:00084f18       iso8859_13_page20          00000001800a8f18     iconv.obj
 0002:00084f20       hkscs2004_uni2indx_page3d  00000001800a8f20     iconv.obj
 0002:00084f60       mac_roman_page01           00000001800a8f60     iconv.obj
 0002:00084fc8       cp437_page03               00000001800a8fc8     iconv.obj
 0002:00085000       jisx0213_from_ucs_level2_data 00000001800a9000     iconv.obj
 0002:0008a790       translit_pageff            00000001800ae790     iconv.obj
 0002:0008a970       cp1258_page20              00000001800ae970     iconv.obj
 0002:0008a9a0       translit_page25            00000001800ae9a0     iconv.obj
 0002:0008aa20       cp1254_2uni_1              00000001800aea20     iconv.obj
 0002:0008aa60       translit_page2f            00000001800aea60     iconv.obj
 0002:0008ac10       hkscs2004_uni2indx_page71  00000001800aec10     iconv.obj
 0002:0008ac60       gb18030_pua2charset        00000001800aec60     iconv.obj
 0002:0008ad20       cp856_page00               00000001800aed20     iconv.obj
 0002:0008ad78       cp869_page00               00000001800aed78     iconv.obj
 0002:0008ad98       pt154_page00               00000001800aed98     iconv.obj
 0002:0008adb8       cp1254_page02              00000001800aedb8     iconv.obj
 0002:0008add8       hkscs2008_uni2indx_page49  00000001800aedd8     iconv.obj
 0002:0008ade8       hkscs2008_uni2indx_page20a 00000001800aede8     iconv.obj
 0002:0008ae10       cp1129_2uni                00000001800aee10     iconv.obj
 0002:0008aed0       big5_2003_2uni_pagea1      00000001800aeed0     iconv.obj
 0002:0008b148       cp1250_page20              00000001800af148     iconv.obj
 0002:0008b178       cp863_page03               00000001800af178     iconv.obj
 0002:0008b1b0       cns11643_4a_2uni_page21    00000001800af1b0     iconv.obj
 0002:0008c878       jamo_medial_index          00000001800b0878     iconv.obj
 0002:0008c898       cp865_page23               00000001800b0898     iconv.obj
 0002:0008c8b0       cp1250_2uni                00000001800b08b0     iconv.obj
 0002:0008c9b0       cp932ext_uni2indx_page57   00000001800b09b0     iconv.obj
 0002:0008ca60       hkscs2004_uni2indx_page21a 00000001800b0a60     iconv.obj
 0002:0008ca80       translit_page05            00000001800b0a80     iconv.obj
 0002:0008ca90       hkscs2004_uni2indx_page23e 00000001800b0a90     iconv.obj
 0002:0008cb50       cp1254_page01              00000001800b0b50     iconv.obj
 0002:0008cbd0       gb18030ext_page34          00000001800b0bd0     iconv.obj
 0002:0008cc40       jisx0208_2uni_page30       00000001800b0c40     iconv.obj
 0002:0008fe40       hkscs2004_uni2indx_page36  00000001800b3e40     iconv.obj
 0002:0008ff20       gb2312_uni2indx_page30     00000001800b3f20     iconv.obj
 0002:0008ffb0       ksc5601_2uni_page21        00000001800b3fb0     iconv.obj
 0002:00090868       cp936ext_page02            00000001800b4868     iconv.obj
 0002:00090898       cp861_page03               00000001800b4898     iconv.obj
 0002:000908d0       cp853_page00               00000001800b48d0     iconv.obj
 0002:00090930       iso8859_8_page00           00000001800b4930     iconv.obj
 0002:00090988       tcvn_2uni_1                00000001800b4988     iconv.obj
 0002:000909b8       iso8859_6_page00           00000001800b49b8     iconv.obj
 0002:000909c8       jamo_initial_index_inverse 00000001800b49c8     iconv.obj
 0002:000909e0       isoir165ext_uni2indx_page32 00000001800b49e0     iconv.obj
 0002:00090a60       cns11643_4a_2uni_upages    00000001800b4a60     iconv.obj
 0002:00090db0       big5_2003_2uni_pagec6      00000001800b4db0     iconv.obj
 0002:00090e40       gbkext_inv_uni2indx_page32 00000001800b4e40     iconv.obj
 0002:00090eb8       cp1255_page20              00000001800b4eb8     iconv.obj
 0002:00090ef0       big5_uni2indx_page30       00000001800b4ef0     iconv.obj
 0002:00090fe8       cp50221_0212_ext_page53    00000001800b4fe8     iconv.obj
 0002:00091010       translit_page1e            00000001800b5010     iconv.obj
 0002:00091150       rk1048_page04              00000001800b5150     iconv.obj
 0002:00091240       iso8859_2_2uni             00000001800b5240     iconv.obj
 0002:00091300       hkscs2008_uni2indx_page70  00000001800b5300     iconv.obj
 0002:00091320       cp936ext_2uni_pagea6       00000001800b5320     iconv.obj
 0002:00091350       cp950_2uni_pagea1          00000001800b5350     iconv.obj
 0002:000915c8       iso8859_4_page02           00000001800b55c8     iconv.obj
 0002:000915e8       riscos1_page01             00000001800b55e8     iconv.obj
 0002:00091610       tcvn_page1e                00000001800b5610     iconv.obj
 0002:00091670       iso8859_8_2uni             00000001800b5670     iconv.obj
 0002:00091730       pt154_2uni                 00000001800b5730     iconv.obj
 0002:000917b0       cp861_2uni                 00000001800b57b0     iconv.obj
 0002:000918b0       cp1251_page20              00000001800b58b0     iconv.obj
 0002:000918e0       translit_page30            00000001800b58e0     iconv.obj
 0002:00091ad0       hkscs2004_uni2indx_page298 00000001800b5ad0     iconv.obj
 0002:00091b28       isoir165ext_uni2indx_page03 00000001800b5b28     iconv.obj
 0002:00091b58       cp950ext_uni2indx_page25   00000001800b5b58     iconv.obj
 0002:00091b80       hkscs2008_uni2indx_page79  00000001800b5b80     iconv.obj
 0002:00091c38       translit_page02            00000001800b5c38     iconv.obj
 0002:00091c48       hkscs2004_uni2indx_page2a3 00000001800b5c48     iconv.obj
 0002:00091c60       tds565_page00_1            00000001800b5c60     iconv.obj
 0002:00091ca0       koi8_ru_page25             00000001800b5ca0     iconv.obj
 0002:00091d48       iso8859_14_page1e_1        00000001800b5d48     iconv.obj
 0002:00091d50       big5_2charset              00000001800b5d50     iconv.obj
 0002:00098860       hkscs2004_uni2indx_page21d 00000001800bc860     iconv.obj
 0002:000988b0       cp1255_page05              00000001800bc8b0     iconv.obj
 0002:000988f8       jisx0208_uni2indx_pageff   00000001800bc8f8     iconv.obj
 0002:00098938       xdirect_tab                00000001800bc938     iconv.obj
 0002:00098948       cp855_page00               00000001800bc948     iconv.obj
 0002:00098968       hkscs2004_uni2indx_page254 00000001800bc968     iconv.obj
 0002:00098990       cp950ext_2uni_pagef9       00000001800bc990     iconv.obj
 0002:000989e8       cp1254_2uni_2              00000001800bc9e8     iconv.obj
 0002:00098a08       hkscs2008_uni2indx_page97  00000001800bca08     iconv.obj
 0002:00098a20       georgian_ps_2uni_2         00000001800bca20     iconv.obj
 0002:00098a70       hkscs2004_2uni_page87      00000001800bca70     iconv.obj
 0002:00098ae8       cp1046_pagef8              00000001800bcae8     iconv.obj
 0002:00098af8       hkscs2001_uni2indx_page8b  00000001800bcaf8     iconv.obj
 0002:00098b20       cp1125_2uni                00000001800bcb20     iconv.obj
 0002:00098bc0       jisx0212_2uni_page26       00000001800bcbc0     iconv.obj
 0002:00098d38       tcvn_page03                00000001800bcd38     iconv.obj
 0002:00098d60       mac_iceland_page00         00000001800bcd60     iconv.obj
 0002:00098dc0       hkscs2008_uni2indx_page94  00000001800bcdc0     iconv.obj
 0002:00098dd0       hkscs1999_uni2indx_page2e  00000001800bcdd0     iconv.obj
 0002:00098ee0       viscii_2uni_1              00000001800bcee0     iconv.obj
 0002:00098f20       jamo_initial_index         00000001800bcf20     iconv.obj
 0002:00098f40       iso8859_6_page06           00000001800bcf40     iconv.obj
 0002:00098f90       cp50221_0208_ext_page32    00000001800bcf90     iconv.obj
 0002:00098fa0       jisx0213_from_ucs_level1   00000001800bcfa0     iconv.obj
 0002:0009a4d8       iso8859_5_page00           00000001800be4d8     iconv.obj
 0002:0009a4e8       iso8859_3_page02           00000001800be4e8     iconv.obj
 0002:0009a4f0       mac_arabic_2uni            00000001800be4f0     iconv.obj
 0002:0009a5f0       ksc5601_uni2indx_page4e    00000001800be5f0     iconv.obj
 0002:0009ba58       hkscs2008_uni2indx_page26e 00000001800bfa58     iconv.obj
 0002:0009ba80       mac_greek_2uni             00000001800bfa80     iconv.obj
 0002:0009bb80       mac_croatian_page22        00000001800bfb80     iconv.obj
 0002:0009bbe8       cp1257_page20              00000001800bfbe8     iconv.obj
 0002:0009bc18       hkscs1999_uni2indx_page27  00000001800bfc18     iconv.obj
 0002:0009bc30       cjk_variants               00000001800bfc30     iconv.obj
 0002:000a1a40       uhc_1_uni2indx_pageac      00000001800c5a40     iconv.obj
 0002:000a2170       cp932ext_uni2indx_page88   00000001800c6170     iconv.obj
 0002:000a2328       jamo_final                 00000001800c6328     iconv.obj
 0002:000a2350       gb2312_2charset            00000001800c6350     iconv.obj
 0002:000a5d80       hkscs1999_2uni_page8d      00000001800c9d80     iconv.obj
 0002:000a7610       hkscs2001_uni2indx_page69  00000001800cb610     iconv.obj
 0002:000a7670       cp932ext_uni2indx_page21   00000001800cb670     iconv.obj
 0002:000a76e0       jamo_final_index           00000001800cb6e0     iconv.obj
 0002:000a7700       gbkext_inv_uni2indx_page25 00000001800cb700     iconv.obj
 0002:000a7750       cp857_page00               00000001800cb750     iconv.obj
 0002:000a77b0       cp866_page04               00000001800cb7b0     iconv.obj
 0002:000a7810       cns11643_6_2uni_upages     00000001800cb810     iconv.obj
 0002:000a7b40       iso2022_jp3_comp_table_data 00000001800cbb40     iconv.obj
 0002:000a7bb0       cp1046_page06              00000001800cbbb0     iconv.obj
 0002:000a7c20       big5_uni2indx_page02       00000001800cbc20     iconv.obj
 0002:000a7cc0       cp852_2uni                 00000001800cbcc0     iconv.obj
 0002:000a7dc0       georgian_academy_page00    00000001800cbdc0     iconv.obj
 0002:000a7de0       stringpool_contents        00000001800cbde0     iconv.obj
 0002:000a8be0       translit_page00            00000001800ccbe0     iconv.obj
 0002:000a8e90       cp1131_page25              00000001800cce90     iconv.obj
 0002:000a8f30       hkscs1999_2uni_page88      00000001800ccf30     iconv.obj
 0002:000a9420       koi8_u_page25              00000001800cd420     iconv.obj
 0002:000a94d0       cp869_page25               00000001800cd4d0     iconv.obj
 0002:000a9580       iso8859_5_page04           00000001800cd580     iconv.obj
 0002:000a95e0       hkscs2001_uni2indx_page232 00000001800cd5e0     iconv.obj
 0002:000a9660       gbkext_inv_uni2indx_page20 00000001800cd660     iconv.obj
 0002:000a9710       cns11643_7_2uni_upages     00000001800cd710     iconv.obj
 0002:000a9a30       hkscs2004_uni2indx_page66  00000001800cda30     iconv.obj
 0002:000a9a90       gb18030uni_ranges          00000001800cda90     iconv.obj
 0002:000a9c30       johab_hangul_page31        00000001800cdc30     iconv.obj
 0002:000a9ca0       gb18030uni_uni2charset_ranges 00000001800cdca0     iconv.obj
 0002:000a9fe0       hkscs2004_uni2indx_page201 00000001800cdfe0     iconv.obj
 0002:000aa030       rk1048_2uni                00000001800ce030     iconv.obj
 0002:000aa130       cp857_page01               00000001800ce130     iconv.obj
 0002:000aa178       hkscs2001_uni2indx_page214 00000001800ce178     iconv.obj
 0002:000aa190       cp853_page01               00000001800ce190     iconv.obj
 0002:000aa210       iso8859_3_page00           00000001800ce210     iconv.obj
 0002:000aa270       hkscs2008_uni2indx_page43  00000001800ce270     iconv.obj
 0002:000aa2f0       rk1048_page00              00000001800ce2f0     iconv.obj
 0002:000aa310       riscos1_page21             00000001800ce310     iconv.obj
 0002:000aa320       cp950ext_uni2indx_page92   00000001800ce320     iconv.obj
 0002:000aa350       translit_page0e            00000001800ce350     iconv.obj
 0002:000aa3b0       mac_centraleurope_page00   00000001800ce3b0     iconv.obj
 0002:000aa490       hkscs2004_2uni_page8c      00000001800ce490     iconv.obj
 0002:000aa610       tds565_page01              00000001800ce610     iconv.obj
 0002:000aa650       cp864_page06               00000001800ce650     iconv.obj
 0002:000aa6c0       uhc_2_2charset             00000001800ce6c0     iconv.obj
 0002:000ab2f8       cp1252_page20              00000001800cf2f8     iconv.obj
 0002:000ab330       cns11643_1_2uni_page21     00000001800cf330     iconv.obj
 0002:000ab720       big5_uni2indx_page00       00000001800cf720     iconv.obj
 0002:000ab760       hkscs2004_uni2indx_page8a  00000001800cf760     iconv.obj
 0002:000ab7a0       gb18030ext_page39          00000001800cf7a0     iconv.obj
 0002:000ab7d0       koi8_r_page04              00000001800cf7d0     iconv.obj
 0002:000ab830       koi8_ru_2uni               00000001800cf830     iconv.obj
 0002:000ab930       cns11643_inv_uni2indx_pagefe 00000001800cf930     iconv.obj
 0002:000ab9b0       translit_page1d4           00000001800cf9b0     iconv.obj
 0002:000ac1b0       ksc5601_uni2indx_page30    00000001800d01b0     iconv.obj
 0002:000ac2a8       koi8_t_page00              00000001800d02a8     iconv.obj
 0002:000ac2d0       cp1124_2uni                00000001800d02d0     iconv.obj
 0002:000ac390       mac_roman_page00           00000001800d0390     iconv.obj
 0002:000ac3f0       cp860_page25               00000001800d03f0     iconv.obj
 0002:000ac498       hkscs2004_uni2indx_page286 00000001800d0498     iconv.obj
 0002:000ac4c8       iso8859_7_page20           00000001800d04c8     iconv.obj
 0002:000ac4e0       hkscs2008_uni2indx_page3a  00000001800d04e0     iconv.obj
 0002:000ac520       cp936ext_2uni_pagea8       00000001800d0520     iconv.obj
 0002:000ac530       mac_turkish_page02         00000001800d0530     iconv.obj
 0002:000ac550       iso8859_9_2uni             00000001800d0550     iconv.obj
 0002:000ac5b0       hkscs2008_2charset         00000001800d05b0     iconv.obj
 0002:000ac640       koi8_r_page00              00000001800d0640     iconv.obj
 0002:000ac6a0       hkscs2001_uni2indx_page7a  00000001800d06a0     iconv.obj
 0002:000ac7c0       mac_centraleurope_page22   00000001800d07c0     iconv.obj
 0002:000ac7e0       cp775_page00               00000001800d07e0     iconv.obj
 0002:000ac8c0       koi8_u_2uni                00000001800d08c0     iconv.obj
 0002:000ac9c0       koi8_t_2uni                00000001800d09c0     iconv.obj
 0002:000acac0       koi8_ru_page22             00000001800d0ac0     iconv.obj
 0002:000acb10       cp922_2uni_1               00000001800d0b10     iconv.obj
 0002:000acb30       hkscs2004_uni2indx_page272 00000001800d0b30     iconv.obj
 0002:000acbb0       cp932ext_uni2indx_page90   00000001800d0bb0     iconv.obj
 0002:000acf68       hkscs2008_uni2indx_page46  00000001800d0f68     iconv.obj
 0002:000acfa0       koi8_u_page04              00000001800d0fa0     iconv.obj
 0002:000ad038       hkscs2001_uni2indx_page220 00000001800d1038     iconv.obj
 0002:000ad060       nextstep_page01            00000001800d1060     iconv.obj
 0002:000ad0c8       iso8859_8_page20           00000001800d10c8     iconv.obj
 0002:000ad0e0       iso8859_10_2uni            00000001800d10e0     iconv.obj
 0002:000ad1a0       iso8859_10_page00          00000001800d11a0     iconv.obj
 0002:000ad280       iso8859_9_page00           00000001800d1280     iconv.obj
 0002:000ad2b0       hkscs2001_uni2indx_page4b  00000001800d12b0     iconv.obj
 0002:000ad320       cp437_page00               00000001800d1320     iconv.obj
 0002:000ad380       hkscs2004_uni2indx_page26b 00000001800d1380     iconv.obj
 0002:000ad3e0       jisx0212_2uni_page29       00000001800d13e0     iconv.obj
 0002:000ad608       translit_page06            00000001800d1608     iconv.obj
 0002:000ad630       gbkext1_2uni_page81        00000001800d1630     iconv.obj
 0002:000b05b0       cp932ext_uni2indx_page5b   00000001800d45b0     iconv.obj
 0002:000b0670       cp932ext_uni2indx_pagef9   00000001800d4670     iconv.obj
 0002:000b06c0       translit_page0f            00000001800d46c0     iconv.obj
 0002:000b06e0       cns11643_inv_uni2indx_page30 00000001800d46e0     iconv.obj
 0002:000b22d0       hkscs2004_uni2indx_page4f  00000001800d62d0     iconv.obj
 0002:000b2300       sysdep_aliases             00000001800d6300     iconv.obj
 0002:000b2580       hkscs2001_uni2indx_page6c  00000001800d6580     iconv.obj
 0002:000b2600       iso8859_14_page1e_0        00000001800d6600     iconv.obj
 0002:000b2690       jisx0213_to_ucs_pagestart  00000001800d6690     iconv.obj
 0002:000b2a80       cns11643_inv_2charset      00000001800d6a80     iconv.obj
 0002:000db440       iso8859_4_2uni             00000001800ff440     iconv.obj
 0002:000db500       mac_turkish_page01         00000001800ff500     iconv.obj
 0002:000db580       cp1255_comp_table          00000001800ff580     iconv.obj
 0002:000db5c0       cp1046_page25              00000001800ff5c0     iconv.obj
 0002:000db5e0       mac_arabic_page00          00000001800ff5e0     iconv.obj
 0002:000db640       cp866_2uni                 00000001800ff640     iconv.obj
 0002:000db6e0       cp1252_2uni                00000001800ff6e0     iconv.obj
 0002:000db720       isoir165ext_uni2indx_page1e 00000001800ff720     iconv.obj
 0002:000db790       cp437_page25               00000001800ff790     iconv.obj
 0002:000db840       cp864_page00_1             00000001800ff840     iconv.obj
 0002:000db8a0       hkscs2008_uni2indx_page40  00000001800ff8a0     iconv.obj
 0002:000db910       iso8859_2_page00           00000001800ff910     iconv.obj
 0002:000db9f0       hkscs2004_uni2indx_page20a 00000001800ff9f0     iconv.obj
 0002:000dba60       cp852_page25               00000001800ffa60     iconv.obj
 0002:000dbb08       jamo_medial                00000001800ffb08     iconv.obj
 0002:000dbb30       jisx0208_uni2indx_page25   00000001800ffb30     iconv.obj
 0002:000dbb90       jisx0208_uni2indx_page03   00000001800ffb90     iconv.obj
 0002:000dbbe8       mac_centraleurope_page20   00000001800ffbe8     iconv.obj
 0002:000dbc20       armscii_8_page05           00000001800ffc20     iconv.obj
 0002:000dbc80       cp50221_0212_ext_2uni      00000001800ffc80     iconv.obj
 0002:000dbd60       cp855_page04               00000001800ffd60     iconv.obj
 0002:000dbdc0       hkscs2001_uni2indx_page29c 00000001800ffdc0     iconv.obj
 0002:000dbde0       iso8859_15_page00          00000001800ffde0     iconv.obj
 0002:000dbe00       gb18030ext_2uni_pagefe     00000001800ffe00     iconv.obj
 0002:000dbf80       cp922_page00               00000001800fff80     iconv.obj
 0002:000dbfe0       jisx0208_uni2indx_page00   00000001800fffe0     iconv.obj
 0002:000dc020       translit_page22_4          0000000180100020     iconv.obj
 0002:000dc080       cp737_page25               0000000180100080     iconv.obj
 0002:000dc128       jamo_final_notinitial      0000000180100128     iconv.obj
 0002:000dc150       cp1253_2uni                0000000180100150     iconv.obj
 0002:000dc250       cp863_2uni                 0000000180100250     iconv.obj
 0002:000dc350       mac_ukraine_2uni           0000000180100350     iconv.obj
 0002:000dc450       hkscs2001_uni2indx_page3c  0000000180100450     iconv.obj
 0002:000dc510       hkscs1999_uni2indx_page294 0000000180100510     iconv.obj
 0002:000dc590       cp856_2uni                 0000000180100590     iconv.obj
 0002:000dc690       cp1250_page00              0000000180100690     iconv.obj
 0002:000dc770       hkscs2001_uni2indx_page53  0000000180100770     iconv.obj
 0002:000dc7c0       isoir165ext_uni2indx_page94 00000001801007c0     iconv.obj
 0002:000dca00       cp861_page22               0000000180100a00     iconv.obj
 0002:000dca50       hkscs2001_uni2indx_page97  0000000180100a50     iconv.obj
 0002:000dcb10       iso8859_9_page01           0000000180100b10     iconv.obj
 0002:000dcb60       cp865_page22               0000000180100b60     iconv.obj
 0002:000dcbb0       ksc5601_2charset           0000000180100bb0     iconv.obj
 0002:000e0c00       mac_ukraine_page04         0000000180104c00     iconv.obj
 0002:000e0ca0       hkscs2001_2charset         0000000180104ca0     iconv.obj
 0002:000e0d90       hkscs2001_uni2indx_page76  0000000180104d90     iconv.obj
 0002:000e0e50       gbkext_inv_uni2indx_page4e 0000000180104e50     iconv.obj
 0002:000e22c0       georgian_academy_2uni      00000001801062c0     iconv.obj
 0002:000e2300       cp850_page25               0000000180106300     iconv.obj
 0002:000e23a8       mac_thai_pagef8            00000001801063a8     iconv.obj
 0002:000e23d0       cp1258_page01              00000001801063d0     iconv.obj
 0002:000e2440       mac_cyrillic_page22        0000000180106440     iconv.obj
 0002:000e24b0       georgian_academy_page01    00000001801064b0     iconv.obj
 0002:000e2500       mac_centraleurope_2uni     0000000180106500     iconv.obj
 0002:000e2600       jisx0212_uni2indx_page4e   0000000180106600     iconv.obj
 0002:000e3a70       hkscs1999_uni2indx_page2f8 0000000180107a70     iconv.obj
 0002:000e3af0       cp932ext_2uni_pagefa       0000000180107af0     iconv.obj
 0002:000e3e00       gb18030uni_charset2uni_ranges 0000000180107e00     iconv.obj
 0002:000e4140       translit_page20            0000000180108140     iconv.obj
 0002:000e41f0       mac_greek_page22           00000001801081f0     iconv.obj
 0002:000e4210       hkscs2004_uni2indx_page97  0000000180108210     iconv.obj
 0002:000e4270       cp1133_2uni_1              0000000180108270     iconv.obj
 0002:000e42f0       hkscs2001_uni2indx_page91  00000001801082f0     iconv.obj
 0002:000e43b0       hkscs2001_uni2indx_page8e  00000001801083b0     iconv.obj
 0002:000e4430       mac_turkish_2uni           0000000180108430     iconv.obj
 0002:000e4530       atarist_page00             0000000180108530     iconv.obj
 0002:000e4590       mac_thai_page20            0000000180108590     iconv.obj
 0002:000e45b0       gb18030ext_pagefe          00000001801085b0     iconv.obj
 0002:000e45d0       cp1255_page02              00000001801085d0     iconv.obj
 0002:000e45f0       cns11643_inv_uni2indx_pagefa 00000001801085f0     iconv.obj
 0002:000e4600       cp860_2uni                 0000000180108600     iconv.obj
 0002:000e4b50       $unwind$make               0000000180108b50     binding.obj
 0002:000e4b68       $chain$0$make              0000000180108b68     binding.obj
 0002:000e4b7c       $chain$1$make              0000000180108b7c     binding.obj
 0002:000e4b8c       $unwind$convert            0000000180108b8c     binding.obj
 0002:000e4ba4       $chain$0$convert           0000000180108ba4     binding.obj
 0002:000e4bb8       $chain$1$convert           0000000180108bb8     binding.obj
 0002:000e4bc8       $unwind$init               0000000180108bc8     binding.obj
 0002:000e4be4       $unwind$aliases_lookup     0000000180108be4     iconv.obj
 0002:000e4be4       $unwind$c99_mbtowc         0000000180108be4     iconv.obj
 0002:000e4be4       $unwind$cp950ext_wctomb    0000000180108be4     iconv.obj
 0002:000e4be4       $unwind$gbkext_inv_wctomb  0000000180108be4     iconv.obj
 0002:000e4be4       $unwind$hkscs2001_wctomb   0000000180108be4     iconv.obj
 0002:000e4be4       $unwind$hkscs2004_wctomb   0000000180108be4     iconv.obj
 0002:000e4be4       $unwind$hkscs2008_wctomb   0000000180108be4     iconv.obj
 0002:000e4be4       $unwind$tcvn_wctomb        0000000180108be4     iconv.obj
 0002:000e4be4       $unwind$ucs2_mbtowc        0000000180108be4     iconv.obj
 0002:000e4be4       $unwind$ucs4_mbtowc        0000000180108be4     iconv.obj
 0002:000e4be4       $unwind$utf32_mbtowc       0000000180108be4     iconv.obj
 0002:000e4bec       $unwind$cp1255_mbtowc      0000000180108bec     iconv.obj
 0002:000e4bec       $unwind$utf16_mbtowc       0000000180108bec     iconv.obj
 0002:000e4bf8       $unwind$utf7_mbtowc        0000000180108bf8     iconv.obj
 0002:000e4c14       $unwind$big5hkscs1999_mbtowc 0000000180108c14     iconv.obj
 0002:000e4c14       $unwind$big5hkscs2001_mbtowc 0000000180108c14     iconv.obj
 0002:000e4c14       $unwind$big5hkscs2004_mbtowc 0000000180108c14     iconv.obj
 0002:000e4c14       $unwind$euc_jisx0213_wctomb 0000000180108c14     iconv.obj
 0002:000e4c14       $unwind$shift_jisx0213_wctomb 0000000180108c14     iconv.obj
 0002:000e4c14       $unwind$utf7_wctomb        0000000180108c14     iconv.obj
 0002:000e4c14       $unwind$__scrt_dllmain_exception_filter 0000000180108c14     LIBCMT:utility.obj
 0002:000e4c14       $unwind$_recalloc_base     0000000180108c14     libucrt:recalloc.obj
 0002:000e4c14       $unwind$__acrt_free_locale 0000000180108c14     libucrt:locale_refcounting.obj
 0002:000e4c14       $unwind$__acrt_lowio_create_handle_array 0000000180108c14     libucrt:osfinfo.obj
 0002:000e4c14       $unwind$?setSBCS@@YAXPEAU__crt_multibyte_data@@@Z 0000000180108c14     libucrt:mbctype.obj
 0002:000e4c14       $unwind$_seh_filter_exe    0000000180108c14     libucrt:exception_filter.obj
 0002:000e4c14       $unwind$_initterm          0000000180108c14     libucrt:initterm.obj
 0002:000e4c28       $unwind$dec_hanyu_mbtowc   0000000180108c28     iconv.obj
 0002:000e4c28       $unwind$euc_tw_mbtowc      0000000180108c28     iconv.obj
 0002:000e4c28       $unwind$shift_jisx0213_mbtowc 0000000180108c28     iconv.obj
 0002:000e4c28       $unwind$utf7_reset         0000000180108c28     iconv.obj
 0002:000e4c28       $unwind$?load_exe_hook@@YAP6A_JXZIPEAUDelayLoadInfo@@@Z 0000000180108c28     win_delay_load_hook.obj
 0002:000e4c28       $unwind$?DloadReleaseSectionWriteAccess@@YAXXZ 0000000180108c28     DelayImp:delayhlp.obj
 0002:000e4c28       $unwind$__scrt_initialize_default_local_stdio_options 0000000180108c28     LIBCMT:default_local_stdio_options.obj
 0002:000e4c28       $unwind$?dllmain_crt_dispatch@@YAHQEAUHINSTANCE__@@KQEAX@Z 0000000180108c28     LIBCMT:dll_dllmain.obj
 0002:000e4c28       $unwind$__report_rangecheckfailure 0000000180108c28     LIBCMT:gs_report.obj
 0002:000e4c28       $unwind$__GSHandlerCheck   0000000180108c28     LIBCMT:gshandler.obj
 0002:000e4c28       $unwind$__scrt_acquire_startup_lock 0000000180108c28     LIBCMT:utility.obj
 0002:000e4c28       $unwind$__scrt_dllmain_after_initialize_c 0000000180108c28     LIBCMT:utility.obj
 0002:000e4c28       $unwind$__scrt_dllmain_before_initialize_c 0000000180108c28     LIBCMT:utility.obj
 0002:000e4c28       $unwind$__scrt_dllmain_crt_thread_attach 0000000180108c28     LIBCMT:utility.obj
 0002:000e4c28       $unwind$__scrt_dllmain_crt_thread_detach 0000000180108c28     LIBCMT:utility.obj
 0002:000e4c28       $unwind$__scrt_dllmain_uninitialize_c 0000000180108c28     LIBCMT:utility.obj
 0002:000e4c28       $unwind$__scrt_dllmain_uninitialize_critical 0000000180108c28     LIBCMT:utility.obj
 0002:000e4c28       $unwind$__vcrt_initialize  0000000180108c28     libvcruntime:initialization.obj
 0002:000e4c28       $unwind$__vcrt_thread_attach 0000000180108c28     libvcruntime:initialization.obj
 0002:000e4c28       $unwind$__vcrt_thread_detach 0000000180108c28     libvcruntime:initialization.obj
 0002:000e4c28       $unwind$__vcrt_uninitialize 0000000180108c28     libvcruntime:initialization.obj
 0002:000e4c28       $unwind$__vcrt_uninitialize_critical 0000000180108c28     libvcruntime:initialization.obj
 0002:000e4c28       $unwind$__vcrt_initialize_locks 0000000180108c28     libvcruntime:locks.obj
 0002:000e4c28       $unwind$__vcrt_freefls     0000000180108c28     libvcruntime:per_thread_data.obj
 0002:000e4c28       $unwind$__vcrt_getptd      0000000180108c28     libvcruntime:per_thread_data.obj
 0002:000e4c28       $unwind$__vcrt_initialize_ptd 0000000180108c28     libvcruntime:per_thread_data.obj
 0002:000e4c28       $unwind$__vcrt_uninitialize_ptd 0000000180108c28     libvcruntime:per_thread_data.obj
 0002:000e4c28       $unwind$__dcrt_terminate_console_output 0000000180108c28     libucrt:initcon.obj
 0002:000e4c28       $unwind$??$uninitialize_environment_internal@D@@YAXAEAPEAPEAD@Z 0000000180108c28     libucrt:environment_initialization.obj
 0002:000e4c28       $unwind$??$uninitialize_environment_internal@_W@@YAXAEAPEAPEA_W@Z 0000000180108c28     libucrt:environment_initialization.obj
 0002:000e4c28       $unwind$__dcrt_uninitialize_environments_nolock 0000000180108c28     libucrt:environment_initialization.obj
 0002:000e4c28       $unwind$__acrt_initialize_heap 0000000180108c28     libucrt:heap_handle.obj
 0002:000e4c28       $unwind$_msize_base        0000000180108c28     libucrt:msize.obj
 0002:000e4c28       $unwind$?initialize_multibyte@@YAHXZ 0000000180108c28     libucrt:multibyte_initializer.obj
 0002:000e4c28       $unwind$__acrt_thread_attach 0000000180108c28     libucrt:initialization.obj
 0002:000e4c28       $unwind$__acrt_thread_detach 0000000180108c28     libucrt:initialization.obj
 0002:000e4c28       $unwind$__acrt_uninitialize 0000000180108c28     libucrt:initialization.obj
 0002:000e4c28       $unwind$__acrt_uninitialize_critical 0000000180108c28     libucrt:initialization.obj
 0002:000e4c28       $unwind$initialize_c       0000000180108c28     libucrt:initialization.obj
 0002:000e4c28       $unwind$uninitialize_allocated_io_buffers 0000000180108c28     libucrt:initialization.obj
 0002:000e4c28       $unwind$uninitialize_environment 0000000180108c28     libucrt:initialization.obj
 0002:000e4c28       $unwind$__acrt_initialize_ptd 0000000180108c28     libucrt:per_thread_data.obj
 0002:000e4c28       $unwind$__acrt_uninitialize_ptd 0000000180108c28     libucrt:per_thread_data.obj
 0002:000e4c28       $unwind$__acrt_AreFileApisANSI 0000000180108c28     libucrt:winapi_thunks.obj
 0002:000e4c28       $unwind$__pctype_func      0000000180108c28     libucrt:ctype.obj
 0002:000e4c28       $unwind$__acrt_release_locale_ref 0000000180108c28     libucrt:locale_refcounting.obj
 0002:000e4c28       $unwind$_isatty            0000000180108c28     libucrt:isatty.obj
 0002:000e4c28       $unwind$_get_osfhandle     0000000180108c28     libucrt:osfinfo.obj
 0002:000e4c28       $unwind$__acrt_initialize_multibyte 0000000180108c28     libucrt:mbctype.obj
 0002:000e4c28       $unwind$__acrt_update_thread_multibyte_data 0000000180108c28     libucrt:mbctype.obj
 0002:000e4c28       $unwind$__doserrno         0000000180108c28     libucrt:errno.obj
 0002:000e4c28       $unwind$_errno             0000000180108c28     libucrt:errno.obj
 0002:000e4c28       $unwind$_invoke_watson     0000000180108c28     libucrt:invalid_parameter.obj
 0002:000e4c28       $unwind$abort              0000000180108c28     libucrt:abort.obj
 0002:000e4c28       $unwind$__acrt_initialize_command_line 0000000180108c28     libucrt:argv_data.obj
 0002:000e4c28       $unwind$_fileno            0000000180108c28     libucrt:fileno.obj
 0002:000e4c28       $unwind$_stricmp           0000000180108c28     libucrt:stricmp.obj
 0002:000e4c28       $unwind$_statfp            0000000180108c28     libucrt:fpctrl.obj
 0002:000e4c28       $unwind$_set_errno_from_matherr 0000000180108c28     libucrt:fpexcept.obj
 0002:000e4c30       $unwind$c99_wctomb         0000000180108c30     iconv.obj
 0002:000e4c30       $unwind$cp1255_wctomb      0000000180108c30     iconv.obj
 0002:000e4c30       $unwind$cp1258_wctomb      0000000180108c30     iconv.obj
 0002:000e4c30       $unwind$jisx0208_wctomb    0000000180108c30     iconv.obj
 0002:000e4c30       $unwind$johab_mbtowc       0000000180108c30     iconv.obj
 0002:000e4c38       $chain$0$c99_wctomb        0000000180108c38     iconv.obj
 0002:000e4c4c       $chain$2$c99_wctomb        0000000180108c4c     iconv.obj
 0002:000e4c60       $unwind$java_mbtowc        0000000180108c60     iconv.obj
 0002:000e4c6c       $chain$0$java_mbtowc       0000000180108c6c     iconv.obj
 0002:000e4c80       $chain$2$java_mbtowc       0000000180108c80     iconv.obj
 0002:000e4c80       $chain$4$java_mbtowc       0000000180108c80     iconv.obj
 0002:000e4c80       $chain$6$java_mbtowc       0000000180108c80     iconv.obj
 0002:000e4c94       $chain$0$cp1255_wctomb     0000000180108c94     iconv.obj
 0002:000e4ca8       $chain$10$cp1255_wctomb    0000000180108ca8     iconv.obj
 0002:000e4ca8       $chain$12$cp1255_wctomb    0000000180108ca8     iconv.obj
 0002:000e4ca8       $chain$14$cp1255_wctomb    0000000180108ca8     iconv.obj
 0002:000e4ca8       $chain$2$cp1255_wctomb     0000000180108ca8     iconv.obj
 0002:000e4ca8       $chain$4$cp1255_wctomb     0000000180108ca8     iconv.obj
 0002:000e4ca8       $chain$6$cp1255_wctomb     0000000180108ca8     iconv.obj
 0002:000e4ca8       $chain$8$cp1255_wctomb     0000000180108ca8     iconv.obj
 0002:000e4cbc       $unwind$big5_2003_wctomb   0000000180108cbc     iconv.obj
 0002:000e4cbc       $unwind$ces_big5_wctomb    0000000180108cbc     iconv.obj
 0002:000e4cbc       $unwind$cp1258_mbtowc      0000000180108cbc     iconv.obj
 0002:000e4cbc       $unwind$dec_hanyu_wctomb   0000000180108cbc     iconv.obj
 0002:000e4cbc       $unwind$dec_kanji_wctomb   0000000180108cbc     iconv.obj
 0002:000e4cbc       $unwind$euc_cn_wctomb      0000000180108cbc     iconv.obj
 0002:000e4cbc       $unwind$euc_kr_wctomb      0000000180108cbc     iconv.obj
 0002:000e4cbc       $unwind$euc_tw_wctomb      0000000180108cbc     iconv.obj
 0002:000e4cbc       $unwind$tcvn_mbtowc        0000000180108cbc     iconv.obj
 0002:000e4cbc       $unwind$uc_to_mb_write_replacement 0000000180108cbc     iconv.obj
 0002:000e4cbc       $unwind$?DloadGetSRWLockFunctionPointers@@YAEXZ 0000000180108cbc     DelayImp:delayhlp.obj
 0002:000e4cbc       $unwind$_RTC_Initialize    0000000180108cbc     LIBCMT:initsect.obj
 0002:000e4cbc       $unwind$_RTC_Terminate     0000000180108cbc     LIBCMT:initsect.obj
 0002:000e4cbc       $unwind$__vcrt_FlsSetValue 0000000180108cbc     libvcruntime:winapi_downlevel.obj
 0002:000e4cbc       $unwind$??$common_initialize_environment_nolock@D@@YAHXZ 0000000180108cbc     libucrt:environment_initialization.obj
 0002:000e4cbc       $unwind$_realloc_base      0000000180108cbc     libucrt:realloc_base.obj
 0002:000e4cbc       $unwind$?replace_current_thread_locale_nolock@@YAXQEAU__acrt_ptd@@QEAU__crt_locale_data@@@Z 0000000180108cbc     libucrt:per_thread_data.obj
 0002:000e4cbc       $unwind$__acrt_execute_uninitializers 0000000180108cbc     libucrt:shared_initialization.obj
 0002:000e4cbc       $unwind$__acrt_FlsSetValue 0000000180108cbc     libucrt:winapi_thunks.obj
 0002:000e4cbc       $unwind$__acrt_LocaleNameToLCID 0000000180108cbc     libucrt:winapi_thunks.obj
 0002:000e4cbc       $unwind$_updatetlocinfoEx_nolock 0000000180108cbc     libucrt:locale_refcounting.obj
 0002:000e4cbc       $unwind$_close_nolock      0000000180108cbc     libucrt:close.obj
 0002:000e4cbc       $unwind$__acrt_uninitialize_lowio 0000000180108cbc     libucrt:ioinit.obj
 0002:000e4cbc       $unwind$__acrt_errno_map_os_error 0000000180108cbc     libucrt:errno.obj
 0002:000e4cbc       $unwind$_initterm_e        0000000180108cbc     libucrt:initterm.obj
 0002:000e4cbc       $unwind$_fclose_nolock     0000000180108cbc     libucrt:fclose.obj
 0002:000e4cbc       $unwind$strncpy_s          0000000180108cbc     libucrt:strncpy_s.obj
 0002:000e4cc8       $chain$0$cp1258_wctomb     0000000180108cc8     iconv.obj
 0002:000e4cdc       $chain$10$cp1258_wctomb    0000000180108cdc     iconv.obj
 0002:000e4cdc       $chain$2$cp1258_wctomb     0000000180108cdc     iconv.obj
 0002:000e4cdc       $chain$4$cp1258_wctomb     0000000180108cdc     iconv.obj
 0002:000e4cdc       $chain$6$cp1258_wctomb     0000000180108cdc     iconv.obj
 0002:000e4cdc       $chain$8$cp1258_wctomb     0000000180108cdc     iconv.obj
 0002:000e4cf0       $chain$0$jisx0208_wctomb   0000000180108cf0     iconv.obj
 0002:000e4d04       $chain$2$jisx0208_wctomb   0000000180108d04     iconv.obj
 0002:000e4d18       $chain$3$jisx0208_wctomb   0000000180108d18     iconv.obj
 0002:000e4d28       $unwind$ces_gbk_wctomb     0000000180108d28     iconv.obj
 0002:000e4d28       $unwind$cp932_wctomb       0000000180108d28     iconv.obj
 0002:000e4d28       $unwind$cp936_mbtowc       0000000180108d28     iconv.obj
 0002:000e4d28       $unwind$cp950_wctomb       0000000180108d28     iconv.obj
 0002:000e4d28       $unwind$gbk_wctomb         0000000180108d28     iconv.obj
 0002:000e4d28       $unwind$iso2022_jp_mbtowc  0000000180108d28     iconv.obj
 0002:000e4d28       $unwind$isoir165_mbtowc    0000000180108d28     iconv.obj
 0002:000e4d28       $unwind$johab_wctomb       0000000180108d28     iconv.obj
 0002:000e4d28       $unwind$sjis_wctomb        0000000180108d28     iconv.obj
 0002:000e4d28       $unwind$_DllMainCRTStartup 0000000180108d28     LIBCMT:dll_dllmain.obj
 0002:000e4d28       $unwind$__vcrt_getptd_noexit 0000000180108d28     libvcruntime:per_thread_data.obj
 0002:000e4d28       $unwind$__vcrt_InitializeCriticalSectionEx 0000000180108d28     libvcruntime:winapi_downlevel.obj
 0002:000e4d28       $unwind$__acrt_getptd      0000000180108d28     libucrt:per_thread_data.obj
 0002:000e4d28       $unwind$__acrt_getptd_noexit 0000000180108d28     libucrt:per_thread_data.obj
 0002:000e4d28       $unwind$__acrt_execute_initializers 0000000180108d28     libucrt:shared_initialization.obj
 0002:000e4d28       $unwind$__acrt_InitializeCriticalSectionEx 0000000180108d28     libucrt:winapi_thunks.obj
 0002:000e4d28       $unwind$?free_crt_array_internal@@YAXQEAPEBX_K@Z 0000000180108d28     libucrt:inittime.obj
 0002:000e4d28       $unwind$??$common_lseek_nolock@_J@@YA_JH_JH@Z 0000000180108d28     libucrt:lseek.obj
 0002:000e4d28       $unwind$__acrt_stdio_flush_nolock 0000000180108d28     libucrt:fflush.obj
 0002:000e4d28       $unwind$??0_LocaleUpdate@@QEAA@QEAU__crt_locale_pointers@@@Z 0000000180108d28     libucrt:stricmp.obj
 0002:000e4d28       $unwind$_exception_enabled 0000000180108d28     libucrt:libm_error.obj
 0002:000e4d38       $unwind$isoir165_wctomb    0000000180108d38     iconv.obj
 0002:000e4d38       $unwind$strpbrk            0000000180108d38     libucrt:strpbrk.obj
 0002:000e4d48       $unwind$gbk_mbtowc         0000000180108d48     iconv.obj
 0002:000e4d48       $unwind$hz_mbtowc          0000000180108d48     iconv.obj
 0002:000e4d48       $unwind$?DloadObtainSection@@YAPEAXPEAK0@Z 0000000180108d48     DelayImp:delayhlp.obj
 0002:000e4d58       $unwind$big5_2003_mbtowc   0000000180108d58     iconv.obj
 0002:000e4d58       $unwind$euc_jisx0213_mbtowc 0000000180108d58     iconv.obj
 0002:000e4d58       $unwind$euc_jp_mbtowc      0000000180108d58     iconv.obj
 0002:000e4d58       $unwind$iso2022_jp3_reset  0000000180108d58     iconv.obj
 0002:000e4d58       $unwind$?DloadAcquireSectionWriteAccess@@YAXXZ 0000000180108d58     DelayImp:delayhlp.obj
 0002:000e4d58       $unwind$__raise_securityfailure 0000000180108d58     LIBCMT:gs_report.obj
 0002:000e4d58       $unwind$__scrt_initialize_crt 0000000180108d58     LIBCMT:utility.obj
 0002:000e4d58       $unwind$__scrt_initialize_onexit_tables 0000000180108d58     LIBCMT:utility.obj
 0002:000e4d58       $unwind$__scrt_release_startup_lock 0000000180108d58     LIBCMT:utility.obj
 0002:000e4d58       $unwind$__scrt_uninitialize_crt 0000000180108d58     LIBCMT:utility.obj
 0002:000e4d58       $unwind$__vcrt_uninitialize_locks 0000000180108d58     libvcruntime:locks.obj
 0002:000e4d58       $unwind$__vcrt_freeptd     0000000180108d58     libvcruntime:per_thread_data.obj
 0002:000e4d58       $unwind$__std_type_info_destroy_list 0000000180108d58     libvcruntime:std_type_info.obj
 0002:000e4d58       $unwind$__vcrt_FlsAlloc    0000000180108d58     libvcruntime:winapi_downlevel.obj
 0002:000e4d58       $unwind$__vcrt_FlsFree     0000000180108d58     libvcruntime:winapi_downlevel.obj
 0002:000e4d58       $unwind$__vcrt_FlsGetValue 0000000180108d58     libvcruntime:winapi_downlevel.obj
 0002:000e4d58       $unwind$_calloc_base       0000000180108d58     libucrt:calloc_base.obj
 0002:000e4d58       $unwind$_malloc_base       0000000180108d58     libucrt:malloc_base.obj
 0002:000e4d58       $unwind$_callnewh          0000000180108d58     libucrt:new_handler.obj
 0002:000e4d58       $unwind$initialize_pointers 0000000180108d58     libucrt:initialization.obj
 0002:000e4d58       $unwind$uninitialize_allocated_memory 0000000180108d58     libucrt:initialization.obj
 0002:000e4d58       $unwind$__acrt_initialize_locks 0000000180108d58     libucrt:locks.obj
 0002:000e4d58       $unwind$__acrt_uninitialize_locks 0000000180108d58     libucrt:locks.obj
 0002:000e4d58       $unwind$__acrt_freeptd     0000000180108d58     libucrt:per_thread_data.obj
 0002:000e4d58       $unwind$__acrt_getptd_head 0000000180108d58     libucrt:per_thread_data.obj
 0002:000e4d58       $unwind$__acrt_get_process_end_policy 0000000180108d58     libucrt:win_policies.obj
 0002:000e4d58       $unwind$__acrt_AppPolicyGetProcessTerminationMethodInternal 0000000180108d58     libucrt:winapi_thunks.obj
 0002:000e4d58       $unwind$__acrt_FlsAlloc    0000000180108d58     libucrt:winapi_thunks.obj
 0002:000e4d58       $unwind$__acrt_FlsFree     0000000180108d58     libucrt:winapi_thunks.obj
 0002:000e4d58       $unwind$__acrt_FlsGetValue 0000000180108d58     libucrt:winapi_thunks.obj
 0002:000e4d58       $unwind$__acrt_uninitialize_winapi_thunks 0000000180108d58     libucrt:winapi_thunks.obj
 0002:000e4d58       $unwind$__acrt_update_locale_info 0000000180108d58     libucrt:locale_update.obj
 0002:000e4d58       $unwind$__acrt_update_multibyte_info 0000000180108d58     libucrt:locale_update.obj
 0002:000e4d58       $unwind$__acrt_allocate_buffer_for_argv 0000000180108d58     libucrt:argv_parsing.obj
 0002:000e4d58       $unwind$?exit_or_terminate_process@@YAXI@Z 0000000180108d58     libucrt:exit.obj
 0002:000e4d58       $unwind$?try_cor_exit_process@@YAXI@Z 0000000180108d58     libucrt:exit.obj
 0002:000e4d58       $unwind$__acrt_uninitialize_stdio 0000000180108d58     libucrt:_file.obj
 0002:000e4d58       $unwind$__acrt_stdio_free_buffer_nolock 0000000180108d58     libucrt:_freebuf.obj
 0002:000e4d58       $unwind$_fflush_nolock     0000000180108d58     libucrt:fflush.obj
 0002:000e4d58       $unwind$strcpy_s           0000000180108d58     libucrt:strcpy_s.obj
 0002:000e4d58       $unwind$_clrfp             0000000180108d58     libucrt:fpctrl.obj
 0002:000e4d58       $unwind$_set_statfp        0000000180108d58     libucrt:fpctrl.obj
 0002:000e4d60       $unwind$cp936_wctomb       0000000180108d60     iconv.obj
 0002:000e4d60       $unwind$euc_jp_wctomb      0000000180108d60     iconv.obj
 0002:000e4d74       $unwind$hz_wctomb          0000000180108d74     iconv.obj
 0002:000e4d74       $unwind$iso2022_jp_wctomb  0000000180108d74     iconv.obj
 0002:000e4d74       $unwind$iso2022_kr_wctomb  0000000180108d74     iconv.obj
 0002:000e4d88       $unwind$iso2022_jp1_mbtowc 0000000180108d88     iconv.obj
 0002:000e4da0       $unwind$iso2022_jp1_wctomb 0000000180108da0     iconv.obj
 0002:000e4db8       $unwind$iso2022_jp2_mbtowc 0000000180108db8     iconv.obj
 0002:000e4db8       $unwind$__acrt_DownlevelLocaleNameToLCID 0000000180108db8     libucrt:lcidtoname_downlevel.obj
 0002:000e4db8       $unwind$??R<lambda_f03950bc5685219e0bcd2087efbe011e>@@QEBAHXZ 0000000180108db8     libucrt:onexit.obj
 0002:000e4dd0       $unwind$iso2022_jp2_wctomb 0000000180108dd0     iconv.obj
 0002:000e4de4       $chain$1$iso2022_jp2_wctomb 0000000180108de4     iconv.obj
 0002:000e4dfc       $chain$3$iso2022_jp2_wctomb 0000000180108dfc     iconv.obj
 0002:000e4e14       $unwind$iso2022_jpms_mbtowc 0000000180108e14     iconv.obj
 0002:000e4e30       $unwind$iso2022_jpms_wctomb 0000000180108e30     iconv.obj
 0002:000e4e44       $unwind$gb18030_mbtowc     0000000180108e44     iconv.obj
 0002:000e4e54       $chain$1$gb18030_mbtowc    0000000180108e54     iconv.obj
 0002:000e4e6c       $chain$2$gb18030_mbtowc    0000000180108e6c     iconv.obj
 0002:000e4e7c       $unwind$gb18030_wctomb     0000000180108e7c     iconv.obj
 0002:000e4e8c       $chain$0$gb18030_wctomb    0000000180108e8c     iconv.obj
 0002:000e4ea0       $chain$1$gb18030_wctomb    0000000180108ea0     iconv.obj
 0002:000e4eb0       $unwind$iso2022_cn_mbtowc  0000000180108eb0     iconv.obj
 0002:000e4ec8       $unwind$iso2022_cn_wctomb  0000000180108ec8     iconv.obj
 0002:000e4ee0       $unwind$iso2022_cn_ext_mbtowc 0000000180108ee0     iconv.obj
 0002:000e4efc       $unwind$iso2022_cn_ext_wctomb 0000000180108efc     iconv.obj
 0002:000e4f14       $unwind$cp950_mbtowc       0000000180108f14     iconv.obj
 0002:000e4f20       $chain$1$cp950_mbtowc      0000000180108f20     iconv.obj
 0002:000e4f38       $chain$3$cp950_mbtowc      0000000180108f38     iconv.obj
 0002:000e4f50       $unwind$big5hkscs1999_wctomb 0000000180108f50     iconv.obj
 0002:000e4f50       $unwind$big5hkscs2001_wctomb 0000000180108f50     iconv.obj
 0002:000e4f50       $unwind$big5hkscs2004_wctomb 0000000180108f50     iconv.obj
 0002:000e4f50       $unwind$big5hkscs2008_wctomb 0000000180108f50     iconv.obj
 0002:000e4f68       $unwind$big5hkscs2008_mbtowc 0000000180108f68     iconv.obj
 0002:000e4f7c       $unwind$cp949_wctomb       0000000180108f7c     iconv.obj
 0002:000e4f8c       $chain$0$cp949_wctomb      0000000180108f8c     iconv.obj
 0002:000e4fa0       $chain$2$cp949_wctomb      0000000180108fa0     iconv.obj
 0002:000e4fb4       $chain$0$johab_mbtowc      0000000180108fb4     iconv.obj
 0002:000e4fc8       $chain$10$johab_mbtowc     0000000180108fc8     iconv.obj
 0002:000e4fc8       $chain$2$johab_mbtowc      0000000180108fc8     iconv.obj
 0002:000e4fc8       $chain$4$johab_mbtowc      0000000180108fc8     iconv.obj
 0002:000e4fc8       $chain$6$johab_mbtowc      0000000180108fc8     iconv.obj
 0002:000e4fc8       $chain$8$johab_mbtowc      0000000180108fc8     iconv.obj
 0002:000e4fdc       $chain$11$johab_mbtowc     0000000180108fdc     iconv.obj
 0002:000e4fec       $unwind$iso2022_kr_mbtowc  0000000180108fec     iconv.obj
 0002:000e5004       $unwind$iso2022_jp3_mbtowc 0000000180109004     iconv.obj
 0002:000e5004       $unwind$_free_osfhnd       0000000180109004     libucrt:osfinfo.obj
 0002:000e5018       $unwind$iso2022_jp3_wctomb 0000000180109018     iconv.obj
 0002:000e5034       $chain$1$big5_2003_mbtowc  0000000180109034     iconv.obj
 0002:000e504c       $chain$11$big5_2003_mbtowc 000000018010904c     iconv.obj
 0002:000e504c       $chain$13$big5_2003_mbtowc 000000018010904c     iconv.obj
 0002:000e504c       $chain$15$big5_2003_mbtowc 000000018010904c     iconv.obj
 0002:000e504c       $chain$17$big5_2003_mbtowc 000000018010904c     iconv.obj
 0002:000e504c       $chain$19$big5_2003_mbtowc 000000018010904c     iconv.obj
 0002:000e504c       $chain$21$big5_2003_mbtowc 000000018010904c     iconv.obj
 0002:000e504c       $chain$3$big5_2003_mbtowc  000000018010904c     iconv.obj
 0002:000e504c       $chain$5$big5_2003_mbtowc  000000018010904c     iconv.obj
 0002:000e504c       $chain$7$big5_2003_mbtowc  000000018010904c     iconv.obj
 0002:000e504c       $chain$9$big5_2003_mbtowc  000000018010904c     iconv.obj
 0002:000e5064       $unwind$unicode_transliterate 0000000180109064     iconv.obj
 0002:000e5084       $unwind$mb_to_uc_write_replacement 0000000180109084     iconv.obj
 0002:000e5090       $chain$4$mb_to_uc_write_replacement 0000000180109090     iconv.obj
 0002:000e50b4       $chain$5$mb_to_uc_write_replacement 00000001801090b4     iconv.obj
 0002:000e50c4       $chain$6$mb_to_uc_write_replacement 00000001801090c4     iconv.obj
 0002:000e50e8       $unwind$unicode_loop_convert 00000001801090e8     iconv.obj
 0002:000e5100       $unwind$unicode_loop_reset 0000000180109100     iconv.obj
 0002:000e510c       $chain$4$unicode_loop_reset 000000018010910c     iconv.obj
 0002:000e5130       $chain$6$unicode_loop_reset 0000000180109130     iconv.obj
 0002:000e5130       $chain$8$unicode_loop_reset 0000000180109130     iconv.obj
 0002:000e5154       $chain$7$unicode_loop_reset 0000000180109154     iconv.obj
 0002:000e5164       $unwind$libiconv_open      0000000180109164     iconv.obj
 0002:000e518c       xdata                      000000018010918c     node:node.exe
 0002:000e5198       $xdatasym                  0000000180109198     LIBCMT:amdsecgs.obj
 0002:000e519c       $unwind$?dllmain_crt_process_attach@@YAHQEAUHINSTANCE__@@QEAX@Z 000000018010919c     LIBCMT:dll_dllmain.obj
 0002:000e51d8       $unwind$?fin$0@?0??dllmain_crt_process_attach@@YAHQEAUHINSTANCE__@@QEAX@Z@4HA 00000001801091d8     LIBCMT:dll_dllmain.obj
 0002:000e51d8       $unwind$?fin$0@?0??dllmain_crt_process_detach@@YAH_N@Z@4HA 00000001801091d8     LIBCMT:dll_dllmain.obj
 0002:000e51d8       $unwind$?fin$1@?0??dllmain_crt_process_detach@@YAH_N@Z@4HA 00000001801091d8     LIBCMT:dll_dllmain.obj
 0002:000e51d8       $unwind$_IsNonwritableInCurrentImage$filt$0 00000001801091d8     LIBCMT:pesect.obj
 0002:000e51d8       $unwind$_query_new_handler$fin$0 00000001801091d8     libucrt:new_handler.obj
 0002:000e51d8       $unwind$?fin$0@?0???$?RV<lambda_0ae27a3a962d80f24befdcbee591983d>@@AEAV<lambda_8d0ee55de4b1038c4002e0adecdf1839>@@V<lambda_dc504788e8f1664fe9b84e20bfb512f2>@@@?$__crt_seh_guarded_call@X@@QEAAX$$QEAV<lambda_0ae27a3a962d80f24befdcbee591983d>@@AEAV<lambda_8d0ee55de4b1038c4002e0adecdf1839>@@$$QEAV<lambda_dc504788e8f1664fe9b84e20bfb512f2>@@@Z@4HA 00000001801091d8     libucrt:per_thread_data.obj
 0002:000e51d8       $unwind$?fin$0@?0???$?RV<lambda_2d41944a1d46af3157314b8a01080d33>@@AEAV<lambda_8f455de75cd7d7f24b4096f044d8b9e6>@@V<lambda_aa500f224e6afead328df44964fe2772>@@@?$__crt_seh_guarded_call@X@@QEAAX$$QEAV<lambda_2d41944a1d46af3157314b8a01080d33>@@AEAV<lambda_8f455de75cd7d7f24b4096f044d8b9e6>@@$$QEAV<lambda_aa500f224e6afead328df44964fe2772>@@@Z@4HA 00000001801091d8     libucrt:per_thread_data.obj
 0002:000e51d8       $unwind$?fin$0@?0???$?RV<lambda_aa87e3671a710a21b5dc78c0bdf72e11>@@AEAV<lambda_92619d2358a28f41a33ba319515a20b9>@@V<lambda_6992ecaafeb10aed2b74cb1fae11a551>@@@?$__crt_seh_guarded_call@X@@QEAAX$$QEAV<lambda_aa87e3671a710a21b5dc78c0bdf72e11>@@AEAV<lambda_92619d2358a28f41a33ba319515a20b9>@@$$QEAV<lambda_6992ecaafeb10aed2b74cb1fae11a551>@@@Z@4HA 00000001801091d8     libucrt:per_thread_data.obj
 0002:000e51d8       $unwind$?fin$0@?0???$?RV<lambda_f2e299630e499de9f9a165e60fcd3db5>@@AEAV<lambda_2ae9d31cdba2644fcbeaf08da7c24588>@@V<lambda_40d01ff24d0e7b3814fdbdcee8eab3c7>@@@?$__crt_seh_guarded_call@X@@QEAAX$$QEAV<lambda_f2e299630e499de9f9a165e60fcd3db5>@@AEAV<lambda_2ae9d31cdba2644fcbeaf08da7c24588>@@$$QEAV<lambda_40d01ff24d0e7b3814fdbdcee8eab3c7>@@@Z@4HA 00000001801091d8     libucrt:per_thread_data.obj
 0002:000e51d8       $unwind$__acrt_update_thread_locale_data$fin$0 00000001801091d8     libucrt:locale_refcounting.obj
 0002:000e51d8       $unwind$?fin$0@?0???$?RV<lambda_410d79af7f07d98d83a3f525b3859a53>@@AEAV<lambda_3e16ef9562a7dcce91392c22ab16ea36>@@V<lambda_38119f0e861e05405d8a144b9b982f0a>@@@?$__crt_seh_guarded_call@X@@QEAAX$$QEAV<lambda_410d79af7f07d98d83a3f525b3859a53>@@AEAV<lambda_3e16ef9562a7dcce91392c22ab16ea36>@@$$QEAV<lambda_38119f0e861e05405d8a144b9b982f0a>@@@Z@4HA 00000001801091d8     libucrt:wsetlocale.obj
 0002:000e51d8       $unwind$?fin$0@?0???$?RV<lambda_751a882b2c74d4b022dec766aa51a29a>@@AEAV<lambda_628dfdc04ba53c8bfc02c9951375f3f5>@@V<lambda_f6c7be5f7998530c34de24c7437d6b54>@@@?$__crt_seh_guarded_call@H@@QEAAH$$QEAV<lambda_751a882b2c74d4b022dec766aa51a29a>@@AEAV<lambda_628dfdc04ba53c8bfc02c9951375f3f5>@@$$QEAV<lambda_f6c7be5f7998530c34de24c7437d6b54>@@@Z@4HA 00000001801091d8     libucrt:close.obj
 0002:000e51d8       $unwind$?fin$0@?0???$?RV<lambda_a37b2b86f63e897a80ea819b0eb08c01>@@AEAV<lambda_38ce7e780aa69e748d6df282ebc68efe>@@V<lambda_99fb1378e971ab6e7edea83e3a7a83a2>@@@?$__crt_seh_guarded_call@H@@QEAAH$$QEAV<lambda_a37b2b86f63e897a80ea819b0eb08c01>@@AEAV<lambda_38ce7e780aa69e748d6df282ebc68efe>@@$$QEAV<lambda_99fb1378e971ab6e7edea83e3a7a83a2>@@@Z@4HA 00000001801091d8     libucrt:commit.obj
 0002:000e51d8       $unwind$__acrt_initialize_lowio$fin$0 00000001801091d8     libucrt:ioinit.obj
 0002:000e51d8       $unwind$__acrt_lowio_ensure_fh_exists$fin$0 00000001801091d8     libucrt:osfinfo.obj
 0002:000e51d8       $unwind$_write$fin$0       00000001801091d8     libucrt:write.obj
 0002:000e51d8       $unwind$?fin$0@?0???$?RV<lambda_efdfa57d1f175319df784efa44bb7b81>@@AEAV<lambda_5f0a4c1567f8adc6734073e5d1e1b35c>@@V<lambda_2e8a7d3640ea6ccb4c2413664c2db6fd>@@@?$__crt_seh_guarded_call@X@@QEAAX$$QEAV<lambda_efdfa57d1f175319df784efa44bb7b81>@@AEAV<lambda_5f0a4c1567f8adc6734073e5d1e1b35c>@@$$QEAV<lambda_2e8a7d3640ea6ccb4c2413664c2db6fd>@@@Z@4HA 00000001801091d8     libucrt:mbctype.obj
 0002:000e51d8       $unwind$?fin$0@?0??update_thread_multibyte_data_internal@@YAPEAU__crt_multibyte_data@@QEAU__acrt_ptd@@QEAPEAU1@@Z@4HA 00000001801091d8     libucrt:mbctype.obj
 0002:000e51d8       $unwind$?fin$0@?0???$?RV<lambda_450d765d439847d4c735a33c368b5fc0>@@AEAV<lambda_44731a7d0e6d81c3e6aa82d741081786>@@V<lambda_601a2a7da3b7a96e9554ac7215c4b07c>@@@?$__crt_seh_guarded_call@P6AXH@Z@@QEAAP6AXH@Z$$QEAV<lambda_450d765d439847d4c735a33c368b5fc0>@@AEAV<lambda_44731a7d0e6d81c3e6aa82d741081786>@@$$QEAV<lambda_601a2a7da3b7a96e9554ac7215c4b07c>@@@Z@4HA 00000001801091d8     libucrt:signal.obj
 0002:000e51d8       $unwind$raise$fin$0        00000001801091d8     libucrt:signal.obj
 0002:000e51d8       $unwind$?filt$0@?0???R<lambda_6e4b09c48022b2350581041d5f6b0c4c>@@QEBA@XZ@4HA 00000001801091d8     libucrt:exit.obj
 0002:000e51d8       $unwind$?fin$0@?0???$?RV<lambda_d80eeec6fff315bfe5c115232f3240e3>@@AEAV<lambda_6e4b09c48022b2350581041d5f6b0c4c>@@V<lambda_2358e3775559c9db80273638284d5e45>@@@?$__crt_seh_guarded_call@X@@QEAAX$$QEAV<lambda_d80eeec6fff315bfe5c115232f3240e3>@@AEAV<lambda_6e4b09c48022b2350581041d5f6b0c4c>@@$$QEAV<lambda_2358e3775559c9db80273638284d5e45>@@@Z@4HA 00000001801091d8     libucrt:exit.obj
 0002:000e51d8       $unwind$?fin$0@?0???$?RV<lambda_7777bce6b2f8c936911f934f8298dc43>@@AEAV<lambda_f03950bc5685219e0bcd2087efbe011e>@@V<lambda_3883c3dff614d5e0c5f61bb1ac94921c>@@@?$__crt_seh_guarded_call@H@@QEAAH$$QEAV<lambda_7777bce6b2f8c936911f934f8298dc43>@@AEAV<lambda_f03950bc5685219e0bcd2087efbe011e>@@$$QEAV<lambda_3883c3dff614d5e0c5f61bb1ac94921c>@@@Z@4HA 00000001801091d8     libucrt:onexit.obj
 0002:000e51d8       $unwind$_fcloseall$fin$0   00000001801091d8     libucrt:closeall.obj
 0002:000e51d8       $unwind$fclose$fin$0       00000001801091d8     libucrt:fclose.obj
 0002:000e51d8       $unwind$?fin$0@?0???$?RV<lambda_842d9ff0dc9ef11c61343bbaebe7f885>@@AEAV<lambda_c5860995281e5c4ce005b3de8f5874ee>@@V<lambda_d90129c13df834fdcbf8d2b88dafcf2d>@@@?$__crt_seh_guarded_call@X@@QEAAX$$QEAV<lambda_842d9ff0dc9ef11c61343bbaebe7f885>@@AEAV<lambda_c5860995281e5c4ce005b3de8f5874ee>@@$$QEAV<lambda_d90129c13df834fdcbf8d2b88dafcf2d>@@@Z@4HA 00000001801091d8     libucrt:fflush.obj
 0002:000e51d8       $unwind$?fin$0@?0???$?RV<lambda_886d6c58226a84441f68b9f2b8217b83>@@AEAV<lambda_ab61a845afdef5b7c387490eaf3616ee>@@V<lambda_f7f22ab5edc0698d5f6905b0d3f44752>@@@?$__crt_seh_guarded_call@X@@QEAAX$$QEAV<lambda_886d6c58226a84441f68b9f2b8217b83>@@AEAV<lambda_ab61a845afdef5b7c387490eaf3616ee>@@$$QEAV<lambda_f7f22ab5edc0698d5f6905b0d3f44752>@@@Z@4HA 00000001801091d8     libucrt:fflush.obj
 0002:000e51d8       $unwind$_ctrlfp$filt$0     00000001801091d8     libucrt:fpctrl.obj
 0002:000e51e0       $unwind$?dllmain_crt_process_detach@@YAH_N@Z 00000001801091e0     LIBCMT:dll_dllmain.obj
 0002:000e5234       $unwind$?dllmain_dispatch@@YAHQEAUHINSTANCE__@@KQEAX@Z 0000000180109234     LIBCMT:dll_dllmain.obj
 0002:000e525c       $unwind$?filt$0@?0??dllmain_dispatch@@YAHQEAUHINSTANCE__@@KQEAX@Z@4HA 000000018010925c     LIBCMT:dll_dllmain.obj
 0002:000e5264       $unwind$__report_securityfailure 0000000180109264     LIBCMT:gs_report.obj
 0002:000e526c       $unwind$__report_gsfailure 000000018010926c     LIBCMT:gs_report.obj
 0002:000e5274       $unwind$capture_current_context 0000000180109274     LIBCMT:gs_report.obj
 0002:000e5280       $unwind$capture_previous_context 0000000180109280     LIBCMT:gs_report.obj
 0002:000e528c       $unwind$__security_init_cookie 000000018010928c     LIBCMT:gs_support.obj
 0002:000e5298       $unwind$__scrt_is_nonwritable_in_current_image 0000000180109298     LIBCMT:utility.obj
 0002:000e52b8       $unwind$__scrt_is_nonwritable_in_current_image$filt$0 00000001801092b8     LIBCMT:utility.obj
 0002:000e52c0       $unwind$__scrt_fastfail    00000001801092c0     LIBCMT:utility_desktop.obj
 0002:000e52d0       $unwind$__isa_available_init 00000001801092d0     LIBCMT:cpu_disp.obj
 0002:000e52e0       $xdatasym                  00000001801092e0     LIBCMT:guard_dispatch.obj
 0002:000e52e4       $unwind$__C_specific_handler 00000001801092e4     libvcruntime:riscchandler.obj
 0002:000e5300       $unwind$__DestructExceptionObject 0000000180109300     libvcruntime:ehhelpers.obj
 0002:000e5320       $unwind$__DestructExceptionObject$filt$0 0000000180109320     libvcruntime:ehhelpers.obj
 0002:000e5330       $xdatasym                  0000000180109330     libvcruntime:memset.obj
 0002:000e5340       $xdatasym                  0000000180109340     libvcruntime:notify.obj
 0002:000e5350       $xdatasym                  0000000180109350     libvcruntime:memcpy.obj
 0002:000e5360       $unwind$?try_get_function@@YAPEAXW4function_id@?A0x81a78551@@QEBDQEBW4module_id@2@2@Z 0000000180109360     libvcruntime:winapi_downlevel.obj
 0002:000e5360       $unwind$?try_get_function@@YAPEAXW4function_id@?A0x391cf84c@@QEBDQEBW4module_id@2@2@Z 0000000180109360     libucrt:winapi_thunks.obj
 0002:000e5380       $xdatasym                  0000000180109380     libvcruntime:handlers.obj
 0002:000e53a0       $unwind$qsort              00000001801093a0     libucrt:qsort.obj
 0002:000e53b8       $chain$4$qsort             00000001801093b8     libucrt:qsort.obj
 0002:000e53dc       $chain$5$qsort             00000001801093dc     libucrt:qsort.obj
 0002:000e53ec       $unwind$_mbsdec_l          00000001801093ec     libucrt:mbsdec.obj
 0002:000e53ec       $unwind$_stricmp_l         00000001801093ec     libucrt:stricmp.obj
 0002:000e53f8       $unwind$?common_exit@@YAXHW4_crt_exit_cleanup_mode@@W4_crt_exit_return_mode@@@Z 00000001801093f8     libucrt:exit.obj
 0002:000e5404       $unwind$??R<lambda_6e4b09c48022b2350581041d5f6b0c4c>@@QEBA@XZ 0000000180109404     libucrt:exit.obj
 0002:000e5424       $unwind$??$?RV<lambda_d80eeec6fff315bfe5c115232f3240e3>@@AEAV<lambda_6e4b09c48022b2350581041d5f6b0c4c>@@V<lambda_2358e3775559c9db80273638284d5e45>@@@?$__crt_seh_guarded_call@X@@QEAAX$$QEAV<lambda_d80eeec6fff315bfe5c115232f3240e3>@@AEAV<lambda_6e4b09c48022b2350581041d5f6b0c4c>@@$$QEAV<lambda_2358e3775559c9db80273638284d5e45>@@@Z 0000000180109424     libucrt:exit.obj
 0002:000e5448       $unwind$_configure_narrow_argv 0000000180109448     libucrt:argv_parsing.obj
 0002:000e545c       $unwind$??$parse_command_line@D@@YAXPEADPEAPEAD0PEA_K2@Z 000000018010945c     libucrt:argv_parsing.obj
 0002:000e5478       $unwind$??$free_environment@D@@YAXQEAPEAD@Z 0000000180109478     libucrt:environment_initialization.obj
 0002:000e5478       $unwind$??$free_environment@_W@@YAXQEAPEA_W@Z 0000000180109478     libucrt:environment_initialization.obj
 0002:000e5484       $unwind$??$create_environment@D@@YAQEAPEADQEAD@Z 0000000180109484     libucrt:environment_initialization.obj
 0002:000e549c       $unwind$_execute_onexit_table 000000018010949c     libucrt:onexit.obj
 0002:000e54a4       $unwind$??$?RV<lambda_7777bce6b2f8c936911f934f8298dc43>@@AEAV<lambda_f03950bc5685219e0bcd2087efbe011e>@@V<lambda_3883c3dff614d5e0c5f61bb1ac94921c>@@@?$__crt_seh_guarded_call@H@@QEAAH$$QEAV<lambda_7777bce6b2f8c936911f934f8298dc43>@@AEAV<lambda_f03950bc5685219e0bcd2087efbe011e>@@$$QEAV<lambda_3883c3dff614d5e0c5f61bb1ac94921c>@@@Z 00000001801094a4     libucrt:onexit.obj
 0002:000e54c8       $unwind$terminate          00000001801094c8     libucrt:terminate.obj
 0002:000e54e8       $xdatasym                  00000001801094e8     libucrt:strncmp.obj
 0002:000e54ec       $unwind$_invalid_parameter_noinfo 00000001801094ec     libucrt:invalid_parameter.obj
 0002:000e54ec       $unwind$_log10_special     00000001801094ec     libucrt:log_special.obj
 0002:000e54f4       $unwind$__acrt_call_reportfault 00000001801094f4     libucrt:invalid_parameter.obj
 0002:000e5514       $unwind$_invalid_parameter 0000000180109514     libucrt:invalid_parameter.obj
 0002:000e5528       $unwind$__acrt_uninitialize_locale 0000000180109528     libucrt:wsetlocale.obj
 0002:000e5528       $unwind$__acrt_get_sigabrt_handler 0000000180109528     libucrt:signal.obj
 0002:000e5530       $unwind$raise              0000000180109530     libucrt:signal.obj
 0002:000e556c       $unwind$??$?RV<lambda_450d765d439847d4c735a33c368b5fc0>@@AEAV<lambda_44731a7d0e6d81c3e6aa82d741081786>@@V<lambda_601a2a7da3b7a96e9554ac7215c4b07c>@@@?$__crt_seh_guarded_call@P6AXH@Z@@QEAAP6AXH@Z$$QEAV<lambda_450d765d439847d4c735a33c368b5fc0>@@AEAV<lambda_44731a7d0e6d81c3e6aa82d741081786>@@$$QEAV<lambda_601a2a7da3b7a96e9554ac7215c4b07c>@@@Z 000000018010956c     libucrt:signal.obj
 0002:000e5590       $unwind$_free_base         0000000180109590     libucrt:free_base.obj
 0002:000e5590       $unwind$?destroy_fls@@YAXPEAX@Z 0000000180109590     libucrt:per_thread_data.obj
 0002:000e5590       $unwind$__acrt_locale_free_numeric 0000000180109590     libucrt:initnum.obj
 0002:000e5590       $unwind$__acrt_locale_free_lc_time_if_unreferenced 0000000180109590     libucrt:locale_refcounting.obj
 0002:000e5598       $unwind$?construct_ptd_array@@YAXQEAU__acrt_ptd@@@Z 0000000180109598     libucrt:per_thread_data.obj
 0002:000e55a0       $unwind$?destroy_ptd_array@@YAXQEAU__acrt_ptd@@@Z 00000001801095a0     libucrt:per_thread_data.obj
 0002:000e55a8       $unwind$??$?RV<lambda_0ae27a3a962d80f24befdcbee591983d>@@AEAV<lambda_8d0ee55de4b1038c4002e0adecdf1839>@@V<lambda_dc504788e8f1664fe9b84e20bfb512f2>@@@?$__crt_seh_guarded_call@X@@QEAAX$$QEAV<lambda_0ae27a3a962d80f24befdcbee591983d>@@AEAV<lambda_8d0ee55de4b1038c4002e0adecdf1839>@@$$QEAV<lambda_dc504788e8f1664fe9b84e20bfb512f2>@@@Z 00000001801095a8     libucrt:per_thread_data.obj
 0002:000e55cc       $unwind$??$?RV<lambda_aa87e3671a710a21b5dc78c0bdf72e11>@@AEAV<lambda_92619d2358a28f41a33ba319515a20b9>@@V<lambda_6992ecaafeb10aed2b74cb1fae11a551>@@@?$__crt_seh_guarded_call@X@@QEAAX$$QEAV<lambda_aa87e3671a710a21b5dc78c0bdf72e11>@@AEAV<lambda_92619d2358a28f41a33ba319515a20b9>@@$$QEAV<lambda_6992ecaafeb10aed2b74cb1fae11a551>@@@Z 00000001801095cc     libucrt:per_thread_data.obj
 0002:000e55f0       $unwind$??$?RV<lambda_f2e299630e499de9f9a165e60fcd3db5>@@AEAV<lambda_2ae9d31cdba2644fcbeaf08da7c24588>@@V<lambda_40d01ff24d0e7b3814fdbdcee8eab3c7>@@@?$__crt_seh_guarded_call@X@@QEAAX$$QEAV<lambda_f2e299630e499de9f9a165e60fcd3db5>@@AEAV<lambda_2ae9d31cdba2644fcbeaf08da7c24588>@@$$QEAV<lambda_40d01ff24d0e7b3814fdbdcee8eab3c7>@@@Z 00000001801095f0     libucrt:per_thread_data.obj
 0002:000e5614       $unwind$??$?RV<lambda_2d41944a1d46af3157314b8a01080d33>@@AEAV<lambda_8f455de75cd7d7f24b4096f044d8b9e6>@@V<lambda_aa500f224e6afead328df44964fe2772>@@@?$__crt_seh_guarded_call@X@@QEAAX$$QEAV<lambda_2d41944a1d46af3157314b8a01080d33>@@AEAV<lambda_8f455de75cd7d7f24b4096f044d8b9e6>@@$$QEAV<lambda_aa500f224e6afead328df44964fe2772>@@@Z 0000000180109614     libucrt:per_thread_data.obj
 0002:000e5638       $unwind$??$?RV<lambda_410d79af7f07d98d83a3f525b3859a53>@@AEAV<lambda_3e16ef9562a7dcce91392c22ab16ea36>@@V<lambda_38119f0e861e05405d8a144b9b982f0a>@@@?$__crt_seh_guarded_call@X@@QEAAX$$QEAV<lambda_410d79af7f07d98d83a3f525b3859a53>@@AEAV<lambda_3e16ef9562a7dcce91392c22ab16ea36>@@$$QEAV<lambda_38119f0e861e05405d8a144b9b982f0a>@@@Z 0000000180109638     libucrt:wsetlocale.obj
 0002:000e5660       $unwind$??$__acrt_mbs_to_wcs_cp@U__crt_win32_buffer_internal_dynamic_resizing@@@@YAHQEBDAEAV?$__crt_win32_buffer@_WU__crt_win32_buffer_internal_dynamic_resizing@@@@I@Z 0000000180109660     libucrt:argv_wildcards.obj
 0002:000e5678       $unwind$__dcrt_get_narrow_environment_from_os 0000000180109678     libucrt:get_environment_from_os.obj
 0002:000e5678       $unwind$??$__acrt_wcs_to_mbs_cp@U__crt_win32_buffer_internal_dynamic_resizing@@@@YAHQEB_WAEAV?$__crt_win32_buffer@DU__crt_win32_buffer_internal_dynamic_resizing@@@@I@Z 0000000180109678     libucrt:argv_wildcards.obj
 0002:000e5690       $unwind$??$common_expand_argv_wildcards@D@@YAHQEAPEADQEAPEAPEAD@Z 0000000180109690     libucrt:argv_wildcards.obj
 0002:000e56a8       $unwind$??$copy_and_add_argument_to_buffer@D@@YAHQEBD0_KAEAV?$argument_list@D@?A0x5f5c8891@@@Z 00000001801096a8     libucrt:argv_wildcards.obj
 0002:000e56c4       $unwind$??$expand_argument_wildcards@D@@YAHQEAD0AEAV?$argument_list@D@?A0x5f5c8891@@@Z 00000001801096c4     libucrt:argv_wildcards.obj
 0002:000e56e8       $unwind$__acrt_GetModuleFileNameA 00000001801096e8     libucrt:getmodulefilenamea.obj
 0002:000e5704       $unwind$__dcrt_write_console 0000000180109704     libucrt:initcon.obj
 0002:000e5704       $unwind$??$__acrt_wcs_to_mbs_cp@U__crt_win32_buffer_no_resizing@@@@YAHQEB_WAEAV?$__crt_win32_buffer@DU__crt_win32_buffer_no_resizing@@@@I@Z 0000000180109704     libucrt:getmodulefilenamea.obj
 0002:000e5718       $unwind$_setmbcp_nolock    0000000180109718     libucrt:mbctype.obj
 0002:000e5738       $unwind$__dcrt_lowio_ensure_console_output_initialized 0000000180109738     libucrt:initcon.obj
 0002:000e5738       $unwind$_isleadbyte_l      0000000180109738     libucrt:_wctype.obj
 0002:000e5738       $unwind$?getSystemCP@@YAHH@Z 0000000180109738     libucrt:mbctype.obj
 0002:000e5740       $unwind$?update_thread_multibyte_data_internal@@YAPEAU__crt_multibyte_data@@QEAU__acrt_ptd@@QEAPEAU1@@Z 0000000180109740     libucrt:mbctype.obj
 0002:000e5768       $unwind$?setmbcp_internal@@YAHH_NQEAU__acrt_ptd@@QEAPEAU__crt_multibyte_data@@@Z 0000000180109768     libucrt:mbctype.obj
 0002:000e5778       $unwind$?setSBUpLow@@YAXPEAU__crt_multibyte_data@@@Z 0000000180109778     libucrt:mbctype.obj
 0002:000e5794       $unwind$??$?RV<lambda_efdfa57d1f175319df784efa44bb7b81>@@AEAV<lambda_5f0a4c1567f8adc6734073e5d1e1b35c>@@V<lambda_2e8a7d3640ea6ccb4c2413664c2db6fd>@@@?$__crt_seh_guarded_call@X@@QEAAX$$QEAV<lambda_efdfa57d1f175319df784efa44bb7b81>@@AEAV<lambda_5f0a4c1567f8adc6734073e5d1e1b35c>@@$$QEAV<lambda_2e8a7d3640ea6ccb4c2413664c2db6fd>@@@Z 0000000180109794     libucrt:mbctype.obj
 0002:000e57b8       $unwind$?x_ismbbtype_l@@YAHPEAU__crt_locale_pointers@@IHH@Z 00000001801097b8     libucrt:ismbbyte.obj
 0002:000e57c8       $unwind$__GSHandlerCheckCommon 00000001801097c8     LIBCMT:gshandler.obj
 0002:000e57c8       $unwind$__acrt_WideCharToMultiByte 00000001801097c8     libucrt:widechartomultibyte.obj
 0002:000e57d0       $unwind$__acrt_initialize_winapi_thunks 00000001801097d0     libucrt:winapi_thunks.obj
 0002:000e57d8       $unwind$_mbtowc_l          00000001801097d8     libucrt:mbtowc.obj
 0002:000e57d8       $unwind$__acrt_LCMapStringEx 00000001801097d8     libucrt:winapi_thunks.obj
 0002:000e57ec       $unwind$__acrt_initialize_lowio 00000001801097ec     libucrt:ioinit.obj
 0002:000e580c       $unwind$?initialize_inherited_file_handles_nolock@@YAXXZ 000000018010980c     libucrt:ioinit.obj
 0002:000e5828       $unwind$?initialize_stdio_handles_nolock@@YAXXZ 0000000180109828     libucrt:ioinit.obj
 0002:000e5828       $unwind$__acrt_initialize_stdio 0000000180109828     libucrt:_file.obj
 0002:000e5840       $unwind$_query_new_handler 0000000180109840     libucrt:new_handler.obj
 0002:000e5860       $unwind$?common_flush_all@@YAH_N@Z 0000000180109860     libucrt:fflush.obj
 0002:000e5868       $unwind$??$?RV<lambda_842d9ff0dc9ef11c61343bbaebe7f885>@@AEAV<lambda_c5860995281e5c4ce005b3de8f5874ee>@@V<lambda_d90129c13df834fdcbf8d2b88dafcf2d>@@@?$__crt_seh_guarded_call@X@@QEAAX$$QEAV<lambda_842d9ff0dc9ef11c61343bbaebe7f885>@@AEAV<lambda_c5860995281e5c4ce005b3de8f5874ee>@@$$QEAV<lambda_d90129c13df834fdcbf8d2b88dafcf2d>@@@Z 0000000180109868     libucrt:fflush.obj
 0002:000e588c       $unwind$??$?RV<lambda_886d6c58226a84441f68b9f2b8217b83>@@AEAV<lambda_ab61a845afdef5b7c387490eaf3616ee>@@V<lambda_f7f22ab5edc0698d5f6905b0d3f44752>@@@?$__crt_seh_guarded_call@X@@QEAAX$$QEAV<lambda_886d6c58226a84441f68b9f2b8217b83>@@AEAV<lambda_ab61a845afdef5b7c387490eaf3616ee>@@$$QEAV<lambda_f7f22ab5edc0698d5f6905b0d3f44752>@@@Z 000000018010988c     libucrt:fflush.obj
 0002:000e58b4       $unwind$__acrt_update_thread_locale_data 00000001801098b4     libucrt:locale_refcounting.obj
 0002:000e58d8       $unwind$__acrt_locale_free_monetary 00000001801098d8     libucrt:initmon.obj
 0002:000e58e0       $unwind$__acrt_locale_free_time 00000001801098e0     libucrt:inittime.obj
 0002:000e58f0       $unwind$__acrt_GetStringTypeA 00000001801098f0     libucrt:getstringtypea.obj
 0002:000e5918       $unwind$fallbackMethod     0000000180109918     libucrt:strpbrk.obj
 0002:000e5928       $unwind$__acrt_LCMapStringA 0000000180109928     libucrt:lcmapstringa.obj
 0002:000e5938       $unwind$?__acrt_LCMapStringA_stat@@YAHPEAU__crt_locale_pointers@@PEB_WKPEBDHPEADHHH@Z 0000000180109938     libucrt:lcmapstringa.obj
 0002:000e5960       $unwind$__acrt_lowio_destroy_handle_array 0000000180109960     libucrt:osfinfo.obj
 0002:000e5970       $unwind$__acrt_lowio_ensure_fh_exists 0000000180109970     libucrt:osfinfo.obj
 0002:000e599c       $unwind$_close             000000018010999c     libucrt:close.obj
 0002:000e599c       $unwind$_commit            000000018010999c     libucrt:commit.obj
 0002:000e59a4       $unwind$??$?RV<lambda_a37b2b86f63e897a80ea819b0eb08c01>@@AEAV<lambda_38ce7e780aa69e748d6df282ebc68efe>@@V<lambda_99fb1378e971ab6e7edea83e3a7a83a2>@@@?$__crt_seh_guarded_call@H@@QEAAH$$QEAV<lambda_a37b2b86f63e897a80ea819b0eb08c01>@@AEAV<lambda_38ce7e780aa69e748d6df282ebc68efe>@@$$QEAV<lambda_99fb1378e971ab6e7edea83e3a7a83a2>@@@Z 00000001801099a4     libucrt:commit.obj
 0002:000e59c8       $unwind$_write             00000001801099c8     libucrt:write.obj
 0002:000e59f8       $unwind$_write_nolock      00000001801099f8     libucrt:write.obj
 0002:000e5a10       $unwind$?write_double_translated_ansi_nolock@@YA?AUwrite_result@?A0x17268360@@HQEBDI@Z 0000000180109a10     libucrt:write.obj
 0002:000e5a34       $unwind$?write_text_ansi_nolock@@YA?AUwrite_result@?A0x17268360@@HQEBDI@Z 0000000180109a34     libucrt:write.obj
 0002:000e5a34       $unwind$?write_text_utf16le_nolock@@YA?AUwrite_result@?A0x17268360@@HQEBDI@Z 0000000180109a34     libucrt:write.obj
 0002:000e5a54       $unwind$?write_text_utf8_nolock@@YA?AUwrite_result@?A0x17268360@@HQEBDI@Z 0000000180109a54     libucrt:write.obj
 0002:000e5a78       $unwind$_fcloseall         0000000180109a78     libucrt:closeall.obj
 0002:000e5a9c       $unwind$?__mbrtowc_utf8@__crt_mbstring@@YA_KPEA_WPEBD_KPEAU_Mbstatet@@@Z 0000000180109a9c     libucrt:mbrtowc.obj
 0002:000e5aa4       $unwind$?__mbsrtowcs_utf8@__crt_mbstring@@YA_KPEA_WPEAPEBD_KPEAU_Mbstatet@@@Z 0000000180109aa4     libucrt:mbrtowc.obj
 0002:000e5abc       $unwind$_putwch_nolock     0000000180109abc     libucrt:putwch.obj
 0002:000e5ac4       $unwind$fclose             0000000180109ac4     libucrt:fclose.obj
 0002:000e5ae8       $unwind$?__mbrtoc32_utf8@__crt_mbstring@@YA_KPEA_UPEBD_KPEAU_Mbstatet@@@Z 0000000180109ae8     libucrt:mbrtoc32.obj
 0002:000e5b08       $xdatasym                  0000000180109b08     libucrt:log10.obj
 0002:000e5b14       $unwind$??$?RV<lambda_751a882b2c74d4b022dec766aa51a29a>@@AEAV<lambda_628dfdc04ba53c8bfc02c9951375f3f5>@@V<lambda_f6c7be5f7998530c34de24c7437d6b54>@@@?$__crt_seh_guarded_call@H@@QEAAH$$QEAV<lambda_751a882b2c74d4b022dec766aa51a29a>@@AEAV<lambda_628dfdc04ba53c8bfc02c9951375f3f5>@@$$QEAV<lambda_f6c7be5f7998530c34de24c7437d6b54>@@@Z 0000000180109b14     libucrt:close.obj
 0002:000e5b38       $unwind$_call_matherr      0000000180109b38     libucrt:libm_error.obj
 0002:000e5b40       $unwind$_handle_error      0000000180109b40     libucrt:libm_error.obj
 0002:000e5b60       $unwind$__acrt_initialize_fma3 0000000180109b60     libucrt:fma3_available.obj
 0002:000e5b68       $unwind$_log_special_common 0000000180109b68     libucrt:log_special.obj
 0002:000e5b78       $xdatasym                  0000000180109b78     libucrt:fpsr.obj
 0002:000e5b80       $unwind$_raise_exc         0000000180109b80     libucrt:fpexcept.obj
 0002:000e5b88       $unwind$_raise_exc_ex      0000000180109b88     libucrt:fpexcept.obj
 0002:000e5b9c       $unwind$_ctrlfp            0000000180109b9c     libucrt:fpctrl.obj
 0002:000e5bc4       $unwind$?DloadMakePermanentImageCommit@@YAXPEAX_K@Z 0000000180109bc4     DelayImp:delayhlp.obj
 0002:000e5bd0       $unwind$?DloadProtectSection@@YAXKPEAK@Z 0000000180109bd0     DelayImp:delayhlp.obj
 0002:000e5be0       $unwind$__delayLoadHelper2 0000000180109be0     DelayImp:delayhlp.obj
 0002:000e5bfc       $unwind$_IsNonwritableInCurrentImage 0000000180109bfc     LIBCMT:pesect.obj
 0002:000e5c20       $xdatasym                  0000000180109c20     LIBCMT:chkstk.obj
 0002:000e5c28       $xdatasym                  0000000180109c28     libvcruntime:memcmp.obj
 0002:000e5eb0       .edata                     0000000180109eb0     iconv.exp
 0002:000e5ed8       rgpv                       0000000180109ed8     iconv.exp
 0002:000e5edc       rgszName                   0000000180109edc     iconv.exp
 0002:000e5ee0       rgwOrd                     0000000180109ee0     iconv.exp
 0002:000e5ee2       szName                     0000000180109ee2     iconv.exp
 0002:000e5eed       $N00001                    0000000180109eed     iconv.exp
 0002:000e6184       .idata$6                   000000018010a184     kernel32:KERNEL32.dll
 0003:00000030       ?__vcrt_flsindex@@3KA      000000018010b030     libvcruntime:per_thread_data.obj
 0003:00000044       ?errno_no_memory@@3HA      000000018010b044     libucrt:errno.obj
 0003:00000048       ?doserrno_no_memory@@3KA   000000018010b048     libucrt:errno.obj
 0003:00000050       ?__acrt_flsindex@@3KA      000000018010b050     libucrt:per_thread_data.obj
 0003:00000400       _mbctypes                  000000018010b400     libucrt:mbctype.obj
 0003:00000510       _mbcasemaps                000000018010b510     libucrt:mbctype.obj
 0003:00000610       ?__rgctypeflag@@3PADA      000000018010b610     libucrt:mbctype.obj
 0003:00000620       ?__rgcode_page_info@@3PAUcode_page_info@@A 000000018010b620     libucrt:mbctype.obj
 0003:000009c0       ?__dcrt_lowio_console_output_handle@@3PEAXEA 000000018010b9c0     libucrt:initcon.obj
 0003:000009d0       ?dazSupported@?1??_ctrlfp@@9@9 000000018010b9d0     libucrt:fpctrl.obj
 0003:000009f0       _module                    000000018010b9f0     binding.obj
 0003:00000ab8       ?__proc_attached@@3HA      000000018010bab8     LIBCMT:dll_dllmain.obj
 0003:00000ac0       GS_ExceptionRecord         000000018010bac0     LIBCMT:gs_report.obj
 0003:00000b60       GS_ContextRecord           000000018010bb60     LIBCMT:gs_report.obj
 0003:00001060       ?is_initialized_as_dll@@3_NA 000000018010c060     LIBCMT:utility.obj
 0003:00001061       ?module_local_atexit_table_initialized@@3_NA 000000018010c061     LIBCMT:utility.obj
 0003:00001068       ?module_local_atexit_table@@3U_onexit_table_t@@A 000000018010c068     LIBCMT:utility.obj
 0003:00001080       ?module_local_at_quick_exit_table@@3U_onexit_table_t@@A 000000018010c080     LIBCMT:utility.obj
 0003:000010e8       ?heap@@3V_HeapManager@@A   000000018010c0e8     libvcruntime:undname.obj
 0003:00001110       ?__vcrt_startup_thread_ptd@@3U__vcrt_ptd@@A 000000018010c110     libvcruntime:per_thread_data.obj
 0003:00001190       __vcrt_lock_table          000000018010c190     libvcruntime:locks.obj
 0003:000011b8       __vcrt_locks_initialized   000000018010c1b8     libvcruntime:locks.obj
 0003:000011c0       ?module_handles@@3PAPEAUHINSTANCE__@@A 000000018010c1c0     libvcruntime:winapi_downlevel.obj
 0003:000011d8       ?function_pointers@@3PAPEAXA 000000018010c1d8     libvcruntime:winapi_downlevel.obj
 0003:00001208       ?c_termination_complete@@3JA 000000018010c208     libucrt:exit.obj
 0003:00001210       ?thread_local_exit_callback_func@@3P6AXPEAXK0@ZEA 000000018010c210     libucrt:exit.obj
 0003:00001220       ?program_name@?1???$common_configure_argv@D@@YAHW4_crt_argv_mode@@@Z@4PADA 000000018010c220     libucrt:argv_parsing.obj
 0003:00001378       ?__acrt_invalid_parameter_handler@@3V?$dual_state_global@P6AXPEB_W00I_K@Z@__crt_state_management@@A 000000018010c378     libucrt:invalid_parameter.obj
 0003:00001380       ?ctrlc_action@@3V?$dual_state_global@P6AXH@Z@__crt_state_management@@A 000000018010c380     libucrt:signal.obj
 0003:00001388       ?ctrlbreak_action@@3V?$dual_state_global@P6AXH@Z@__crt_state_management@@A 000000018010c388     libucrt:signal.obj
 0003:00001390       ?abort_action@@3V?$dual_state_global@P6AXH@Z@__crt_state_management@@A 000000018010c390     libucrt:signal.obj
 0003:00001398       ?term_action@@3V?$dual_state_global@P6AXH@Z@__crt_state_management@@A 000000018010c398     libucrt:signal.obj
 0003:000013b0       ?__acrt_lock_table@@3PAU_RTL_CRITICAL_SECTION@@A 000000018010c3b0     libucrt:locks.obj
 0003:000015e0       ?__acrt_locks_initialized@@3IA 000000018010c5e0     libucrt:locks.obj
 0003:00001600       ?fSystemSet@@3HA           000000018010c600     libucrt:mbctype.obj
 0003:00001604       ?initialized@?1??__acrt_initialize_multibyte@@9@4_NA 000000018010c604     libucrt:mbctype.obj
 0003:00001640       ?module_handles@@3PAPEAUHINSTANCE__@@A 000000018010c640     libucrt:winapi_thunks.obj
 0003:000016e0       ?encoded_function_pointers@@3PAPEAXA 000000018010c6e0     libucrt:winapi_thunks.obj
 0003:00001c08       ?__acrt_new_handler@@3V?$dual_state_global@P6AH_K@Z@__crt_state_management@@A 000000018010cc08     libucrt:new_handler.obj
 0003:00001c10       ?user_matherr@@3V?$dual_state_global@P6AHPEAU_exception@@@Z@__crt_state_management@@A 000000018010cc10     libucrt:matherr.obj
 0003:00001c38       ?internal_state@?1??_mbtowc_l@@9@4U_Mbstatet@@A 000000018010cc38     libucrt:mbtowc.obj
 0003:00001c40       ?__acrt_global_new_mode@@3V?$dual_state_global@J@__crt_state_management@@A 000000018010cc40     libucrt:new_mode.obj
 0003:00001c4c       ?__acrt_app_type@@3W4_crt_app_type@@A 000000018010cc4c     libucrt:report_runtime_error.obj
 0003:00001c50       ?internal_pst@?1??__mbrtoc32_utf8@__crt_mbstring@@YA_KPEA_UPEBD_KPEAU_Mbstatet@@@Z@4U3@A 000000018010cc50     libucrt:mbrtoc32.obj
 0004:00000000       $pdata$make                000000018010d000     binding.obj
 0004:0000000c       $pdata$0$make              000000018010d00c     binding.obj
 0004:00000018       $pdata$1$make              000000018010d018     binding.obj
 0004:00000024       $pdata$convert             000000018010d024     binding.obj
 0004:00000030       $pdata$0$convert           000000018010d030     binding.obj
 0004:0000003c       $pdata$1$convert           000000018010d03c     binding.obj
 0004:00000048       $pdata$init                000000018010d048     binding.obj
 0004:00000054       $pdata$ucs2_mbtowc         000000018010d054     iconv.obj
 0004:00000060       $pdata$ucs4_mbtowc         000000018010d060     iconv.obj
 0004:0000006c       $pdata$utf16_mbtowc        000000018010d06c     iconv.obj
 0004:00000078       $pdata$utf32_mbtowc        000000018010d078     iconv.obj
 0004:00000084       $pdata$utf7_mbtowc         000000018010d084     iconv.obj
 0004:00000090       $pdata$utf7_wctomb         000000018010d090     iconv.obj
 0004:0000009c       $pdata$utf7_reset          000000018010d09c     iconv.obj
 0004:000000a8       $pdata$c99_mbtowc          000000018010d0a8     iconv.obj
 0004:000000b4       $pdata$c99_wctomb          000000018010d0b4     iconv.obj
 0004:000000c0       $pdata$0$c99_wctomb        000000018010d0c0     iconv.obj
 0004:000000cc       $pdata$2$c99_wctomb        000000018010d0cc     iconv.obj
 0004:000000d8       $pdata$java_mbtowc         000000018010d0d8     iconv.obj
 0004:000000e4       $pdata$0$java_mbtowc       000000018010d0e4     iconv.obj
 0004:000000f0       $pdata$2$java_mbtowc       000000018010d0f0     iconv.obj
 0004:000000fc       $pdata$4$java_mbtowc       000000018010d0fc     iconv.obj
 0004:00000108       $pdata$6$java_mbtowc       000000018010d108     iconv.obj
 0004:00000114       $pdata$cp1255_mbtowc       000000018010d114     iconv.obj
 0004:00000120       $pdata$cp1255_wctomb       000000018010d120     iconv.obj
 0004:0000012c       $pdata$0$cp1255_wctomb     000000018010d12c     iconv.obj
 0004:00000138       $pdata$2$cp1255_wctomb     000000018010d138     iconv.obj
 0004:00000144       $pdata$4$cp1255_wctomb     000000018010d144     iconv.obj
 0004:00000150       $pdata$6$cp1255_wctomb     000000018010d150     iconv.obj
 0004:0000015c       $pdata$8$cp1255_wctomb     000000018010d15c     iconv.obj
 0004:00000168       $pdata$10$cp1255_wctomb    000000018010d168     iconv.obj
 0004:00000174       $pdata$12$cp1255_wctomb    000000018010d174     iconv.obj
 0004:00000180       $pdata$14$cp1255_wctomb    000000018010d180     iconv.obj
 0004:0000018c       $pdata$cp1258_mbtowc       000000018010d18c     iconv.obj
 0004:00000198       $pdata$cp1258_wctomb       000000018010d198     iconv.obj
 0004:000001a4       $pdata$0$cp1258_wctomb     000000018010d1a4     iconv.obj
 0004:000001b0       $pdata$2$cp1258_wctomb     000000018010d1b0     iconv.obj
 0004:000001bc       $pdata$4$cp1258_wctomb     000000018010d1bc     iconv.obj
 0004:000001c8       $pdata$6$cp1258_wctomb     000000018010d1c8     iconv.obj
 0004:000001d4       $pdata$8$cp1258_wctomb     000000018010d1d4     iconv.obj
 0004:000001e0       $pdata$10$cp1258_wctomb    000000018010d1e0     iconv.obj
 0004:000001ec       $pdata$tcvn_mbtowc         000000018010d1ec     iconv.obj
 0004:000001f8       $pdata$tcvn_wctomb         000000018010d1f8     iconv.obj
 0004:00000204       $pdata$jisx0208_wctomb     000000018010d204     iconv.obj
 0004:00000210       $pdata$0$jisx0208_wctomb   000000018010d210     iconv.obj
 0004:0000021c       $pdata$2$jisx0208_wctomb   000000018010d21c     iconv.obj
 0004:00000228       $pdata$3$jisx0208_wctomb   000000018010d228     iconv.obj
 0004:00000234       $pdata$isoir165_mbtowc     000000018010d234     iconv.obj
 0004:00000240       $pdata$isoir165_wctomb     000000018010d240     iconv.obj
 0004:0000024c       $pdata$gbkext_inv_wctomb   000000018010d24c     iconv.obj
 0004:00000258       $pdata$gbk_mbtowc          000000018010d258     iconv.obj
 0004:00000264       $pdata$gbk_wctomb          000000018010d264     iconv.obj
 0004:00000270       $pdata$euc_jp_mbtowc       000000018010d270     iconv.obj
 0004:0000027c       $pdata$euc_jp_wctomb       000000018010d27c     iconv.obj
 0004:00000288       $pdata$sjis_wctomb         000000018010d288     iconv.obj
 0004:00000294       $pdata$cp932_wctomb        000000018010d294     iconv.obj
 0004:000002a0       $pdata$iso2022_jp_mbtowc   000000018010d2a0     iconv.obj
 0004:000002ac       $pdata$iso2022_jp_wctomb   000000018010d2ac     iconv.obj
 0004:000002b8       $pdata$iso2022_jp1_mbtowc  000000018010d2b8     iconv.obj
 0004:000002c4       $pdata$iso2022_jp1_wctomb  000000018010d2c4     iconv.obj
 0004:000002d0       $pdata$iso2022_jp2_mbtowc  000000018010d2d0     iconv.obj
 0004:000002dc       $pdata$iso2022_jp2_wctomb  000000018010d2dc     iconv.obj
 0004:000002e8       $pdata$1$iso2022_jp2_wctomb 000000018010d2e8     iconv.obj
 0004:000002f4       $pdata$3$iso2022_jp2_wctomb 000000018010d2f4     iconv.obj
 0004:00000300       $pdata$iso2022_jpms_mbtowc 000000018010d300     iconv.obj
 0004:0000030c       $pdata$iso2022_jpms_wctomb 000000018010d30c     iconv.obj
 0004:00000318       $pdata$euc_cn_wctomb       000000018010d318     iconv.obj
 0004:00000324       $pdata$ces_gbk_wctomb      000000018010d324     iconv.obj
 0004:00000330       $pdata$cp936_mbtowc        000000018010d330     iconv.obj
 0004:0000033c       $pdata$cp936_wctomb        000000018010d33c     iconv.obj
 0004:00000348       $pdata$gb18030_mbtowc      000000018010d348     iconv.obj
 0004:00000354       $pdata$1$gb18030_mbtowc    000000018010d354     iconv.obj
 0004:00000360       $pdata$2$gb18030_mbtowc    000000018010d360     iconv.obj
 0004:0000036c       $pdata$gb18030_wctomb      000000018010d36c     iconv.obj
 0004:00000378       $pdata$0$gb18030_wctomb    000000018010d378     iconv.obj
 0004:00000384       $pdata$1$gb18030_wctomb    000000018010d384     iconv.obj
 0004:00000390       $pdata$iso2022_cn_mbtowc   000000018010d390     iconv.obj
 0004:0000039c       $pdata$iso2022_cn_wctomb   000000018010d39c     iconv.obj
 0004:000003a8       $pdata$iso2022_cn_ext_mbtowc 000000018010d3a8     iconv.obj
 0004:000003b4       $pdata$iso2022_cn_ext_wctomb 000000018010d3b4     iconv.obj
 0004:000003c0       $pdata$hz_mbtowc           000000018010d3c0     iconv.obj
 0004:000003cc       $pdata$hz_wctomb           000000018010d3cc     iconv.obj
 0004:000003d8       $pdata$euc_tw_mbtowc       000000018010d3d8     iconv.obj
 0004:000003e4       $pdata$euc_tw_wctomb       000000018010d3e4     iconv.obj
 0004:000003f0       $pdata$ces_big5_wctomb     000000018010d3f0     iconv.obj
 0004:000003fc       $pdata$cp950ext_wctomb     000000018010d3fc     iconv.obj
 0004:00000408       $pdata$cp950_mbtowc        000000018010d408     iconv.obj
 0004:00000414       $pdata$1$cp950_mbtowc      000000018010d414     iconv.obj
 0004:00000420       $pdata$3$cp950_mbtowc      000000018010d420     iconv.obj
 0004:0000042c       $pdata$cp950_wctomb        000000018010d42c     iconv.obj
 0004:00000438       $pdata$big5hkscs1999_mbtowc 000000018010d438     iconv.obj
 0004:00000444       $pdata$big5hkscs1999_wctomb 000000018010d444     iconv.obj
 0004:00000450       $pdata$hkscs2001_wctomb    000000018010d450     iconv.obj
 0004:0000045c       $pdata$big5hkscs2001_mbtowc 000000018010d45c     iconv.obj
 0004:00000468       $pdata$big5hkscs2001_wctomb 000000018010d468     iconv.obj
 0004:00000474       $pdata$hkscs2004_wctomb    000000018010d474     iconv.obj
 0004:00000480       $pdata$big5hkscs2004_mbtowc 000000018010d480     iconv.obj
 0004:0000048c       $pdata$big5hkscs2004_wctomb 000000018010d48c     iconv.obj
 0004:00000498       $pdata$hkscs2008_wctomb    000000018010d498     iconv.obj
 0004:000004a4       $pdata$big5hkscs2008_mbtowc 000000018010d4a4     iconv.obj
 0004:000004b0       $pdata$big5hkscs2008_wctomb 000000018010d4b0     iconv.obj
 0004:000004bc       $pdata$euc_kr_wctomb       000000018010d4bc     iconv.obj
 0004:000004c8       $pdata$cp949_wctomb        000000018010d4c8     iconv.obj
 0004:000004d4       $pdata$0$cp949_wctomb      000000018010d4d4     iconv.obj
 0004:000004e0       $pdata$2$cp949_wctomb      000000018010d4e0     iconv.obj
 0004:000004ec       $pdata$johab_mbtowc        000000018010d4ec     iconv.obj
 0004:000004f8       $pdata$0$johab_mbtowc      000000018010d4f8     iconv.obj
 0004:00000504       $pdata$2$johab_mbtowc      000000018010d504     iconv.obj
 0004:00000510       $pdata$4$johab_mbtowc      000000018010d510     iconv.obj
 0004:0000051c       $pdata$6$johab_mbtowc      000000018010d51c     iconv.obj
 0004:00000528       $pdata$8$johab_mbtowc      000000018010d528     iconv.obj
 0004:00000534       $pdata$10$johab_mbtowc     000000018010d534     iconv.obj
 0004:00000540       $pdata$11$johab_mbtowc     000000018010d540     iconv.obj
 0004:0000054c       $pdata$johab_wctomb        000000018010d54c     iconv.obj
 0004:00000558       $pdata$iso2022_kr_mbtowc   000000018010d558     iconv.obj
 0004:00000564       $pdata$iso2022_kr_wctomb   000000018010d564     iconv.obj
 0004:00000570       $pdata$dec_kanji_wctomb    000000018010d570     iconv.obj
 0004:0000057c       $pdata$dec_hanyu_mbtowc    000000018010d57c     iconv.obj
 0004:00000588       $pdata$dec_hanyu_wctomb    000000018010d588     iconv.obj
 0004:00000594       $pdata$euc_jisx0213_mbtowc 000000018010d594     iconv.obj
 0004:000005a0       $pdata$euc_jisx0213_wctomb 000000018010d5a0     iconv.obj
 0004:000005ac       $pdata$shift_jisx0213_mbtowc 000000018010d5ac     iconv.obj
 0004:000005b8       $pdata$shift_jisx0213_wctomb 000000018010d5b8     iconv.obj
 0004:000005c4       $pdata$iso2022_jp3_mbtowc  000000018010d5c4     iconv.obj
 0004:000005d0       $pdata$iso2022_jp3_wctomb  000000018010d5d0     iconv.obj
 0004:000005dc       $pdata$iso2022_jp3_reset   000000018010d5dc     iconv.obj
 0004:000005e8       $pdata$big5_2003_mbtowc    000000018010d5e8     iconv.obj
 0004:000005f4       $pdata$1$big5_2003_mbtowc  000000018010d5f4     iconv.obj
 0004:00000600       $pdata$3$big5_2003_mbtowc  000000018010d600     iconv.obj
 0004:0000060c       $pdata$5$big5_2003_mbtowc  000000018010d60c     iconv.obj
 0004:00000618       $pdata$7$big5_2003_mbtowc  000000018010d618     iconv.obj
 0004:00000624       $pdata$9$big5_2003_mbtowc  000000018010d624     iconv.obj
 0004:00000630       $pdata$11$big5_2003_mbtowc 000000018010d630     iconv.obj
 0004:0000063c       $pdata$13$big5_2003_mbtowc 000000018010d63c     iconv.obj
 0004:00000648       $pdata$15$big5_2003_mbtowc 000000018010d648     iconv.obj
 0004:00000654       $pdata$17$big5_2003_mbtowc 000000018010d654     iconv.obj
 0004:00000660       $pdata$19$big5_2003_mbtowc 000000018010d660     iconv.obj
 0004:0000066c       $pdata$21$big5_2003_mbtowc 000000018010d66c     iconv.obj
 0004:00000678       $pdata$big5_2003_wctomb    000000018010d678     iconv.obj
 0004:00000684       $pdata$unicode_transliterate 000000018010d684     iconv.obj
 0004:00000690       $pdata$uc_to_mb_write_replacement 000000018010d690     iconv.obj
 0004:0000069c       $pdata$mb_to_uc_write_replacement 000000018010d69c     iconv.obj
 0004:000006a8       $pdata$4$mb_to_uc_write_replacement 000000018010d6a8     iconv.obj
 0004:000006b4       $pdata$5$mb_to_uc_write_replacement 000000018010d6b4     iconv.obj
 0004:000006c0       $pdata$6$mb_to_uc_write_replacement 000000018010d6c0     iconv.obj
 0004:000006cc       $pdata$unicode_loop_convert 000000018010d6cc     iconv.obj
 0004:000006d8       $pdata$unicode_loop_reset  000000018010d6d8     iconv.obj
 0004:000006e4       $pdata$4$unicode_loop_reset 000000018010d6e4     iconv.obj
 0004:000006f0       $pdata$6$unicode_loop_reset 000000018010d6f0     iconv.obj
 0004:000006fc       $pdata$7$unicode_loop_reset 000000018010d6fc     iconv.obj
 0004:00000708       $pdata$8$unicode_loop_reset 000000018010d708     iconv.obj
 0004:00000714       $pdata$aliases_lookup      000000018010d714     iconv.obj
 0004:00000720       $pdata$libiconv_open       000000018010d720     iconv.obj
 0004:0000072c       $pdata$?load_exe_hook@@YAP6A_JXZIPEAUDelayLoadInfo@@@Z 000000018010d72c     win_delay_load_hook.obj
 0004:00000750       $pdata$?dllmain_crt_dispatch@@YAHQEAUHINSTANCE__@@KQEAX@Z 000000018010d750     LIBCMT:dll_dllmain.obj
 0004:0000075c       $pdata$?dllmain_crt_process_attach@@YAHQEAUHINSTANCE__@@QEAX@Z 000000018010d75c     LIBCMT:dll_dllmain.obj
 0004:00000768       $pdata$?dllmain_crt_process_detach@@YAH_N@Z 000000018010d768     LIBCMT:dll_dllmain.obj
 0004:00000774       $pdata$?dllmain_dispatch@@YAHQEAUHINSTANCE__@@KQEAX@Z 000000018010d774     LIBCMT:dll_dllmain.obj
 0004:00000780       $pdata$_DllMainCRTStartup  000000018010d780     LIBCMT:dll_dllmain.obj
 0004:0000078c       $pdata$__raise_securityfailure 000000018010d78c     LIBCMT:gs_report.obj
 0004:00000798       $pdata$__report_gsfailure  000000018010d798     LIBCMT:gs_report.obj
 0004:000007a4       $pdata$__report_rangecheckfailure 000000018010d7a4     LIBCMT:gs_report.obj
 0004:000007b0       $pdata$__report_securityfailure 000000018010d7b0     LIBCMT:gs_report.obj
 0004:000007bc       $pdata$capture_current_context 000000018010d7bc     LIBCMT:gs_report.obj
 0004:000007c8       $pdata$capture_previous_context 000000018010d7c8     LIBCMT:gs_report.obj
 0004:000007d4       $pdata$__security_init_cookie 000000018010d7d4     LIBCMT:gs_support.obj
 0004:000007e0       $pdata$__scrt_initialize_default_local_stdio_options 000000018010d7e0     LIBCMT:default_local_stdio_options.obj
 0004:000007ec       $pdata$__scrt_acquire_startup_lock 000000018010d7ec     LIBCMT:utility.obj
 0004:000007f8       $pdata$__scrt_dllmain_after_initialize_c 000000018010d7f8     LIBCMT:utility.obj
 0004:00000804       $pdata$__scrt_dllmain_before_initialize_c 000000018010d804     LIBCMT:utility.obj
 0004:00000810       $pdata$__scrt_dllmain_crt_thread_attach 000000018010d810     LIBCMT:utility.obj
 0004:0000081c       $pdata$__scrt_dllmain_crt_thread_detach 000000018010d81c     LIBCMT:utility.obj
 0004:00000828       $pdata$__scrt_dllmain_exception_filter 000000018010d828     LIBCMT:utility.obj
 0004:00000834       $pdata$__scrt_dllmain_uninitialize_c 000000018010d834     LIBCMT:utility.obj
 0004:00000840       $pdata$__scrt_dllmain_uninitialize_critical 000000018010d840     LIBCMT:utility.obj
 0004:0000084c       $pdata$__scrt_initialize_crt 000000018010d84c     LIBCMT:utility.obj
 0004:00000858       $pdata$__scrt_initialize_onexit_tables 000000018010d858     LIBCMT:utility.obj
 0004:00000864       $pdata$__scrt_is_nonwritable_in_current_image 000000018010d864     LIBCMT:utility.obj
 0004:00000870       $pdata$__scrt_release_startup_lock 000000018010d870     LIBCMT:utility.obj
 0004:0000087c       $pdata$__scrt_uninitialize_crt 000000018010d87c     LIBCMT:utility.obj
 0004:00000888       $pdata$__scrt_fastfail     000000018010d888     LIBCMT:utility_desktop.obj
 0004:00000894       $pdata$_RTC_Initialize     000000018010d894     LIBCMT:initsect.obj
 0004:000008a0       $pdata$_RTC_Terminate      000000018010d8a0     LIBCMT:initsect.obj
 0004:000008ac       $pdata$__isa_available_init 000000018010d8ac     LIBCMT:cpu_disp.obj
 0004:000008b8       $pdata$__C_specific_handler 000000018010d8b8     libvcruntime:riscchandler.obj
 0004:000008c4       $pdata$__std_type_info_destroy_list 000000018010d8c4     libvcruntime:std_type_info.obj
 0004:000008d0       $pdata$__vcrt_initialize   000000018010d8d0     libvcruntime:initialization.obj
 0004:000008dc       $pdata$__vcrt_thread_attach 000000018010d8dc     libvcruntime:initialization.obj
 0004:000008e8       $pdata$__vcrt_thread_detach 000000018010d8e8     libvcruntime:initialization.obj
 0004:000008f4       $pdata$__vcrt_uninitialize 000000018010d8f4     libvcruntime:initialization.obj
 0004:00000900       $pdata$__vcrt_uninitialize_critical 000000018010d900     libvcruntime:initialization.obj
 0004:0000090c       $pdata$__DestructExceptionObject 000000018010d90c     libvcruntime:ehhelpers.obj
 0004:00000954       $pdata$__vcrt_freefls      000000018010d954     libvcruntime:per_thread_data.obj
 0004:00000960       $pdata$__vcrt_freeptd      000000018010d960     libvcruntime:per_thread_data.obj
 0004:0000096c       $pdata$__vcrt_getptd       000000018010d96c     libvcruntime:per_thread_data.obj
 0004:00000978       $pdata$__vcrt_getptd_noexit 000000018010d978     libvcruntime:per_thread_data.obj
 0004:00000984       $pdata$__vcrt_initialize_ptd 000000018010d984     libvcruntime:per_thread_data.obj
 0004:00000990       $pdata$__vcrt_uninitialize_ptd 000000018010d990     libvcruntime:per_thread_data.obj
 0004:0000099c       $pdata$__vcrt_initialize_locks 000000018010d99c     libvcruntime:locks.obj
 0004:000009a8       $pdata$__vcrt_uninitialize_locks 000000018010d9a8     libvcruntime:locks.obj
 0004:000009cc       $pdata$?try_get_function@@YAPEAXW4function_id@?A0x81a78551@@QEBDQEBW4module_id@2@2@Z 000000018010d9cc     libvcruntime:winapi_downlevel.obj
 0004:000009d8       $pdata$__vcrt_FlsAlloc     000000018010d9d8     libvcruntime:winapi_downlevel.obj
 0004:000009e4       $pdata$__vcrt_FlsFree      000000018010d9e4     libvcruntime:winapi_downlevel.obj
 0004:000009f0       $pdata$__vcrt_FlsGetValue  000000018010d9f0     libvcruntime:winapi_downlevel.obj
 0004:000009fc       $pdata$__vcrt_FlsSetValue  000000018010d9fc     libvcruntime:winapi_downlevel.obj
 0004:00000a08       $pdata$__vcrt_InitializeCriticalSectionEx 000000018010da08     libvcruntime:winapi_downlevel.obj
 0004:00000a44       $pdata$abort               000000018010da44     libucrt:abort.obj
 0004:00000a50       $pdata$__acrt_errno_map_os_error 000000018010da50     libucrt:errno.obj
 0004:00000a5c       $pdata$__doserrno          000000018010da5c     libucrt:errno.obj
 0004:00000a68       $pdata$_errno              000000018010da68     libucrt:errno.obj
 0004:00000a74       $pdata$qsort               000000018010da74     libucrt:qsort.obj
 0004:00000a80       $pdata$4$qsort             000000018010da80     libucrt:qsort.obj
 0004:00000a8c       $pdata$5$qsort             000000018010da8c     libucrt:qsort.obj
 0004:00000a98       $pdata$??0_LocaleUpdate@@QEAA@QEAU__crt_locale_pointers@@@Z 000000018010da98     libucrt:stricmp.obj
 0004:00000aa4       $pdata$_stricmp            000000018010daa4     libucrt:stricmp.obj
 0004:00000ab0       $pdata$_stricmp_l          000000018010dab0     libucrt:stricmp.obj
 0004:00000abc       $pdata$_initterm           000000018010dabc     libucrt:initterm.obj
 0004:00000ac8       $pdata$_initterm_e         000000018010dac8     libucrt:initterm.obj
 0004:00000ad4       $pdata$_seh_filter_exe     000000018010dad4     libucrt:exception_filter.obj
 0004:00000ae0       $pdata$??$?RV<lambda_d80eeec6fff315bfe5c115232f3240e3>@@AEAV<lambda_6e4b09c48022b2350581041d5f6b0c4c>@@V<lambda_2358e3775559c9db80273638284d5e45>@@@?$__crt_seh_guarded_call@X@@QEAAX$$QEAV<lambda_d80eeec6fff315bfe5c115232f3240e3>@@AEAV<lambda_6e4b09c48022b2350581041d5f6b0c4c>@@$$QEAV<lambda_2358e3775559c9db80273638284d5e45>@@@Z 000000018010dae0     libucrt:exit.obj
 0004:00000aec       $pdata$??R<lambda_6e4b09c48022b2350581041d5f6b0c4c>@@QEBA@XZ 000000018010daec     libucrt:exit.obj
 0004:00000af8       $pdata$?common_exit@@YAXHW4_crt_exit_cleanup_mode@@W4_crt_exit_return_mode@@@Z 000000018010daf8     libucrt:exit.obj
 0004:00000b04       $pdata$?exit_or_terminate_process@@YAXI@Z 000000018010db04     libucrt:exit.obj
 0004:00000b10       $pdata$?try_cor_exit_process@@YAXI@Z 000000018010db10     libucrt:exit.obj
 0004:00000b1c       $pdata$??$parse_command_line@D@@YAXPEADPEAPEAD0PEA_K2@Z 000000018010db1c     libucrt:argv_parsing.obj
 0004:00000b28       $pdata$__acrt_allocate_buffer_for_argv 000000018010db28     libucrt:argv_parsing.obj
 0004:00000b34       $pdata$_configure_narrow_argv 000000018010db34     libucrt:argv_parsing.obj
 0004:00000b40       $pdata$??$common_initialize_environment_nolock@D@@YAHXZ 000000018010db40     libucrt:environment_initialization.obj
 0004:00000b4c       $pdata$??$create_environment@D@@YAQEAPEADQEAD@Z 000000018010db4c     libucrt:environment_initialization.obj
 0004:00000b58       $pdata$??$free_environment@D@@YAXQEAPEAD@Z 000000018010db58     libucrt:environment_initialization.obj
 0004:00000b58       $pdata$??$free_environment@_W@@YAXQEAPEA_W@Z 000000018010db58     libucrt:environment_initialization.obj
 0004:00000b64       $pdata$??$uninitialize_environment_internal@D@@YAXAEAPEAPEAD@Z 000000018010db64     libucrt:environment_initialization.obj
 0004:00000b70       $pdata$??$uninitialize_environment_internal@_W@@YAXAEAPEAPEA_W@Z 000000018010db70     libucrt:environment_initialization.obj
 0004:00000b7c       $pdata$__dcrt_uninitialize_environments_nolock 000000018010db7c     libucrt:environment_initialization.obj
 0004:00000b88       $pdata$??$?RV<lambda_7777bce6b2f8c936911f934f8298dc43>@@AEAV<lambda_f03950bc5685219e0bcd2087efbe011e>@@V<lambda_3883c3dff614d5e0c5f61bb1ac94921c>@@@?$__crt_seh_guarded_call@H@@QEAAH$$QEAV<lambda_7777bce6b2f8c936911f934f8298dc43>@@AEAV<lambda_f03950bc5685219e0bcd2087efbe011e>@@$$QEAV<lambda_3883c3dff614d5e0c5f61bb1ac94921c>@@@Z 000000018010db88     libucrt:onexit.obj
 0004:00000b94       $pdata$??R<lambda_f03950bc5685219e0bcd2087efbe011e>@@QEBAHXZ 000000018010db94     libucrt:onexit.obj
 0004:00000ba0       $pdata$_execute_onexit_table 000000018010dba0     libucrt:onexit.obj
 0004:00000bac       $pdata$initialize_c        000000018010dbac     libucrt:initialization.obj
 0004:00000bb8       $pdata$uninitialize_environment 000000018010dbb8     libucrt:initialization.obj
 0004:00000bc4       $pdata$initialize_pointers 000000018010dbc4     libucrt:initialization.obj
 0004:00000bd0       $pdata$uninitialize_allocated_memory 000000018010dbd0     libucrt:initialization.obj
 0004:00000bdc       $pdata$uninitialize_allocated_io_buffers 000000018010dbdc     libucrt:initialization.obj
 0004:00000be8       $pdata$__acrt_thread_attach 000000018010dbe8     libucrt:initialization.obj
 0004:00000bf4       $pdata$__acrt_thread_detach 000000018010dbf4     libucrt:initialization.obj
 0004:00000c00       $pdata$__acrt_uninitialize 000000018010dc00     libucrt:initialization.obj
 0004:00000c0c       $pdata$__acrt_uninitialize_critical 000000018010dc0c     libucrt:initialization.obj
 0004:00000c18       $pdata$terminate           000000018010dc18     libucrt:terminate.obj
 0004:00000c24       $pdata$strcpy_s            000000018010dc24     libucrt:strcpy_s.obj
 0004:00000c3c       $pdata$__acrt_call_reportfault 000000018010dc3c     libucrt:invalid_parameter.obj
 0004:00000c48       $pdata$_invalid_parameter  000000018010dc48     libucrt:invalid_parameter.obj
 0004:00000c54       $pdata$_invalid_parameter_noinfo 000000018010dc54     libucrt:invalid_parameter.obj
 0004:00000c60       $pdata$_invoke_watson      000000018010dc60     libucrt:invalid_parameter.obj
 0004:00000c6c       $pdata$??$?RV<lambda_450d765d439847d4c735a33c368b5fc0>@@AEAV<lambda_44731a7d0e6d81c3e6aa82d741081786>@@V<lambda_601a2a7da3b7a96e9554ac7215c4b07c>@@@?$__crt_seh_guarded_call@P6AXH@Z@@QEAAP6AXH@Z$$QEAV<lambda_450d765d439847d4c735a33c368b5fc0>@@AEAV<lambda_44731a7d0e6d81c3e6aa82d741081786>@@$$QEAV<lambda_601a2a7da3b7a96e9554ac7215c4b07c>@@@Z 000000018010dc6c     libucrt:signal.obj
 0004:00000c78       $pdata$__acrt_get_sigabrt_handler 000000018010dc78     libucrt:signal.obj
 0004:00000c84       $pdata$raise               000000018010dc84     libucrt:signal.obj
 0004:00000c90       $pdata$??$?RV<lambda_0ae27a3a962d80f24befdcbee591983d>@@AEAV<lambda_8d0ee55de4b1038c4002e0adecdf1839>@@V<lambda_dc504788e8f1664fe9b84e20bfb512f2>@@@?$__crt_seh_guarded_call@X@@QEAAX$$QEAV<lambda_0ae27a3a962d80f24befdcbee591983d>@@AEAV<lambda_8d0ee55de4b1038c4002e0adecdf1839>@@$$QEAV<lambda_dc504788e8f1664fe9b84e20bfb512f2>@@@Z 000000018010dc90     libucrt:per_thread_data.obj
 0004:00000c9c       $pdata$??$?RV<lambda_2d41944a1d46af3157314b8a01080d33>@@AEAV<lambda_8f455de75cd7d7f24b4096f044d8b9e6>@@V<lambda_aa500f224e6afead328df44964fe2772>@@@?$__crt_seh_guarded_call@X@@QEAAX$$QEAV<lambda_2d41944a1d46af3157314b8a01080d33>@@AEAV<lambda_8f455de75cd7d7f24b4096f044d8b9e6>@@$$QEAV<lambda_aa500f224e6afead328df44964fe2772>@@@Z 000000018010dc9c     libucrt:per_thread_data.obj
 0004:00000ca8       $pdata$??$?RV<lambda_aa87e3671a710a21b5dc78c0bdf72e11>@@AEAV<lambda_92619d2358a28f41a33ba319515a20b9>@@V<lambda_6992ecaafeb10aed2b74cb1fae11a551>@@@?$__crt_seh_guarded_call@X@@QEAAX$$QEAV<lambda_aa87e3671a710a21b5dc78c0bdf72e11>@@AEAV<lambda_92619d2358a28f41a33ba319515a20b9>@@$$QEAV<lambda_6992ecaafeb10aed2b74cb1fae11a551>@@@Z 000000018010dca8     libucrt:per_thread_data.obj
 0004:00000cb4       $pdata$??$?RV<lambda_f2e299630e499de9f9a165e60fcd3db5>@@AEAV<lambda_2ae9d31cdba2644fcbeaf08da7c24588>@@V<lambda_40d01ff24d0e7b3814fdbdcee8eab3c7>@@@?$__crt_seh_guarded_call@X@@QEAAX$$QEAV<lambda_f2e299630e499de9f9a165e60fcd3db5>@@AEAV<lambda_2ae9d31cdba2644fcbeaf08da7c24588>@@$$QEAV<lambda_40d01ff24d0e7b3814fdbdcee8eab3c7>@@@Z 000000018010dcb4     libucrt:per_thread_data.obj
 0004:00000cc0       $pdata$?construct_ptd_array@@YAXQEAU__acrt_ptd@@@Z 000000018010dcc0     libucrt:per_thread_data.obj
 0004:00000ccc       $pdata$?destroy_fls@@YAXPEAX@Z 000000018010dccc     libucrt:per_thread_data.obj
 0004:00000cd8       $pdata$?destroy_ptd_array@@YAXQEAU__acrt_ptd@@@Z 000000018010dcd8     libucrt:per_thread_data.obj
 0004:00000ce4       $pdata$?replace_current_thread_locale_nolock@@YAXQEAU__acrt_ptd@@QEAU__crt_locale_data@@@Z 000000018010dce4     libucrt:per_thread_data.obj
 0004:00000cf0       $pdata$__acrt_freeptd      000000018010dcf0     libucrt:per_thread_data.obj
 0004:00000cfc       $pdata$__acrt_getptd       000000018010dcfc     libucrt:per_thread_data.obj
 0004:00000d08       $pdata$__acrt_getptd_head  000000018010dd08     libucrt:per_thread_data.obj
 0004:00000d14       $pdata$__acrt_getptd_noexit 000000018010dd14     libucrt:per_thread_data.obj
 0004:00000d20       $pdata$__acrt_initialize_ptd 000000018010dd20     libucrt:per_thread_data.obj
 0004:00000d2c       $pdata$__acrt_uninitialize_ptd 000000018010dd2c     libucrt:per_thread_data.obj
 0004:00000d38       $pdata$_free_base          000000018010dd38     libucrt:free_base.obj
 0004:00000d44       $pdata$_malloc_base        000000018010dd44     libucrt:malloc_base.obj
 0004:00000d50       $pdata$__acrt_update_locale_info 000000018010dd50     libucrt:locale_update.obj
 0004:00000d5c       $pdata$__acrt_update_multibyte_info 000000018010dd5c     libucrt:locale_update.obj
 0004:00000d68       $pdata$??$?RV<lambda_410d79af7f07d98d83a3f525b3859a53>@@AEAV<lambda_3e16ef9562a7dcce91392c22ab16ea36>@@V<lambda_38119f0e861e05405d8a144b9b982f0a>@@@?$__crt_seh_guarded_call@X@@QEAAX$$QEAV<lambda_410d79af7f07d98d83a3f525b3859a53>@@AEAV<lambda_3e16ef9562a7dcce91392c22ab16ea36>@@$$QEAV<lambda_38119f0e861e05405d8a144b9b982f0a>@@@Z 000000018010dd68     libucrt:wsetlocale.obj
 0004:00000d74       $pdata$__acrt_uninitialize_locale 000000018010dd74     libucrt:wsetlocale.obj
 0004:00000d80       $pdata$__acrt_initialize_locks 000000018010dd80     libucrt:locks.obj
 0004:00000d8c       $pdata$__acrt_uninitialize_locks 000000018010dd8c     libucrt:locks.obj
 0004:00000d98       $pdata$__acrt_get_process_end_policy 000000018010dd98     libucrt:win_policies.obj
 0004:00000da4       $pdata$_calloc_base        000000018010dda4     libucrt:calloc_base.obj
 0004:00000db0       $pdata$??$__acrt_mbs_to_wcs_cp@U__crt_win32_buffer_internal_dynamic_resizing@@@@YAHQEBDAEAV?$__crt_win32_buffer@_WU__crt_win32_buffer_internal_dynamic_resizing@@@@I@Z 000000018010ddb0     libucrt:argv_wildcards.obj
 0004:00000dbc       $pdata$??$__acrt_wcs_to_mbs_cp@U__crt_win32_buffer_internal_dynamic_resizing@@@@YAHQEB_WAEAV?$__crt_win32_buffer@DU__crt_win32_buffer_internal_dynamic_resizing@@@@I@Z 000000018010ddbc     libucrt:argv_wildcards.obj
 0004:00000dc8       $pdata$??$common_expand_argv_wildcards@D@@YAHQEAPEADQEAPEAPEAD@Z 000000018010ddc8     libucrt:argv_wildcards.obj
 0004:00000dd4       $pdata$??$copy_and_add_argument_to_buffer@D@@YAHQEBD0_KAEAV?$argument_list@D@?A0x5f5c8891@@@Z 000000018010ddd4     libucrt:argv_wildcards.obj
 0004:00000de0       $pdata$??$expand_argument_wildcards@D@@YAHQEAD0AEAV?$argument_list@D@?A0x5f5c8891@@@Z 000000018010dde0     libucrt:argv_wildcards.obj
 0004:00000dec       $pdata$??$__acrt_wcs_to_mbs_cp@U__crt_win32_buffer_no_resizing@@@@YAHQEB_WAEAV?$__crt_win32_buffer@DU__crt_win32_buffer_no_resizing@@@@I@Z 000000018010ddec     libucrt:getmodulefilenamea.obj
 0004:00000df8       $pdata$__acrt_GetModuleFileNameA 000000018010ddf8     libucrt:getmodulefilenamea.obj
 0004:00000e04       $pdata$??$?RV<lambda_efdfa57d1f175319df784efa44bb7b81>@@AEAV<lambda_5f0a4c1567f8adc6734073e5d1e1b35c>@@V<lambda_2e8a7d3640ea6ccb4c2413664c2db6fd>@@@?$__crt_seh_guarded_call@X@@QEAAX$$QEAV<lambda_efdfa57d1f175319df784efa44bb7b81>@@AEAV<lambda_5f0a4c1567f8adc6734073e5d1e1b35c>@@$$QEAV<lambda_2e8a7d3640ea6ccb4c2413664c2db6fd>@@@Z 000000018010de04     libucrt:mbctype.obj
 0004:00000e10       $pdata$?getSystemCP@@YAHH@Z 000000018010de10     libucrt:mbctype.obj
 0004:00000e1c       $pdata$?setSBCS@@YAXPEAU__crt_multibyte_data@@@Z 000000018010de1c     libucrt:mbctype.obj
 0004:00000e28       $pdata$?setSBUpLow@@YAXPEAU__crt_multibyte_data@@@Z 000000018010de28     libucrt:mbctype.obj
 0004:00000e34       $pdata$?setmbcp_internal@@YAHH_NQEAU__acrt_ptd@@QEAPEAU__crt_multibyte_data@@@Z 000000018010de34     libucrt:mbctype.obj
 0004:00000e40       $pdata$?update_thread_multibyte_data_internal@@YAPEAU__crt_multibyte_data@@QEAU__acrt_ptd@@QEAPEAU1@@Z 000000018010de40     libucrt:mbctype.obj
 0004:00000e4c       $pdata$__acrt_initialize_multibyte 000000018010de4c     libucrt:mbctype.obj
 0004:00000e58       $pdata$__acrt_update_thread_multibyte_data 000000018010de58     libucrt:mbctype.obj
 0004:00000e64       $pdata$_setmbcp_nolock     000000018010de64     libucrt:mbctype.obj
 0004:00000e70       $pdata$?x_ismbbtype_l@@YAHPEAU__crt_locale_pointers@@IHH@Z 000000018010de70     libucrt:ismbbyte.obj
 0004:00000e7c       $pdata$__acrt_initialize_command_line 000000018010de7c     libucrt:argv_data.obj
 0004:00000e88       $pdata$__acrt_WideCharToMultiByte 000000018010de88     libucrt:widechartomultibyte.obj
 0004:00000e94       $pdata$__dcrt_get_narrow_environment_from_os 000000018010de94     libucrt:get_environment_from_os.obj
 0004:00000ea0       $pdata$_recalloc_base      000000018010dea0     libucrt:recalloc.obj
 0004:00000eac       $pdata$?try_get_function@@YAPEAXW4function_id@?A0x391cf84c@@QEBDQEBW4module_id@2@2@Z 000000018010deac     libucrt:winapi_thunks.obj
 0004:00000eb8       $pdata$__acrt_AppPolicyGetProcessTerminationMethodInternal 000000018010deb8     libucrt:winapi_thunks.obj
 0004:00000ec4       $pdata$__acrt_AreFileApisANSI 000000018010dec4     libucrt:winapi_thunks.obj
 0004:00000ed0       $pdata$__acrt_FlsAlloc     000000018010ded0     libucrt:winapi_thunks.obj
 0004:00000edc       $pdata$__acrt_FlsFree      000000018010dedc     libucrt:winapi_thunks.obj
 0004:00000ee8       $pdata$__acrt_FlsGetValue  000000018010dee8     libucrt:winapi_thunks.obj
 0004:00000ef4       $pdata$__acrt_FlsSetValue  000000018010def4     libucrt:winapi_thunks.obj
 0004:00000f00       $pdata$__acrt_InitializeCriticalSectionEx 000000018010df00     libucrt:winapi_thunks.obj
 0004:00000f0c       $pdata$__acrt_LCMapStringEx 000000018010df0c     libucrt:winapi_thunks.obj
 0004:00000f18       $pdata$__acrt_LocaleNameToLCID 000000018010df18     libucrt:winapi_thunks.obj
 0004:00000f24       $pdata$__acrt_initialize_winapi_thunks 000000018010df24     libucrt:winapi_thunks.obj
 0004:00000f30       $pdata$__acrt_uninitialize_winapi_thunks 000000018010df30     libucrt:winapi_thunks.obj
 0004:00000f3c       $pdata$__acrt_initialize_heap 000000018010df3c     libucrt:heap_handle.obj
 0004:00000f48       $pdata$?initialize_inherited_file_handles_nolock@@YAXXZ 000000018010df48     libucrt:ioinit.obj
 0004:00000f54       $pdata$?initialize_stdio_handles_nolock@@YAXXZ 000000018010df54     libucrt:ioinit.obj
 0004:00000f60       $pdata$__acrt_initialize_lowio 000000018010df60     libucrt:ioinit.obj
 0004:00000f6c       $pdata$__acrt_uninitialize_lowio 000000018010df6c     libucrt:ioinit.obj
 0004:00000f78       $pdata$__acrt_execute_initializers 000000018010df78     libucrt:shared_initialization.obj
 0004:00000f84       $pdata$__acrt_execute_uninitializers 000000018010df84     libucrt:shared_initialization.obj
 0004:00000f90       $pdata$_callnewh           000000018010df90     libucrt:new_handler.obj
 0004:00000f9c       $pdata$_query_new_handler  000000018010df9c     libucrt:new_handler.obj
 0004:00000fa8       $pdata$??$?RV<lambda_842d9ff0dc9ef11c61343bbaebe7f885>@@AEAV<lambda_c5860995281e5c4ce005b3de8f5874ee>@@V<lambda_d90129c13df834fdcbf8d2b88dafcf2d>@@@?$__crt_seh_guarded_call@X@@QEAAX$$QEAV<lambda_842d9ff0dc9ef11c61343bbaebe7f885>@@AEAV<lambda_c5860995281e5c4ce005b3de8f5874ee>@@$$QEAV<lambda_d90129c13df834fdcbf8d2b88dafcf2d>@@@Z 000000018010dfa8     libucrt:fflush.obj
 0004:00000fb4       $pdata$??$?RV<lambda_886d6c58226a84441f68b9f2b8217b83>@@AEAV<lambda_ab61a845afdef5b7c387490eaf3616ee>@@V<lambda_f7f22ab5edc0698d5f6905b0d3f44752>@@@?$__crt_seh_guarded_call@X@@QEAAX$$QEAV<lambda_886d6c58226a84441f68b9f2b8217b83>@@AEAV<lambda_ab61a845afdef5b7c387490eaf3616ee>@@$$QEAV<lambda_f7f22ab5edc0698d5f6905b0d3f44752>@@@Z 000000018010dfb4     libucrt:fflush.obj
 0004:00000fc0       $pdata$?common_flush_all@@YAH_N@Z 000000018010dfc0     libucrt:fflush.obj
 0004:00000fcc       $pdata$__acrt_stdio_flush_nolock 000000018010dfcc     libucrt:fflush.obj
 0004:00000fd8       $pdata$_fflush_nolock      000000018010dfd8     libucrt:fflush.obj
 0004:00000fe4       $pdata$__acrt_initialize_stdio 000000018010dfe4     libucrt:_file.obj
 0004:00000ff0       $pdata$__acrt_uninitialize_stdio 000000018010dff0     libucrt:_file.obj
 0004:00000ffc       $pdata$_mbtowc_l           000000018010dffc     libucrt:mbtowc.obj
 0004:00001008       $pdata$_fileno             000000018010e008     libucrt:fileno.obj
 0004:00001014       $pdata$__pctype_func       000000018010e014     libucrt:ctype.obj
 0004:00001020       $pdata$__acrt_free_locale  000000018010e020     libucrt:locale_refcounting.obj
 0004:0000102c       $pdata$__acrt_locale_free_lc_time_if_unreferenced 000000018010e02c     libucrt:locale_refcounting.obj
 0004:00001038       $pdata$__acrt_release_locale_ref 000000018010e038     libucrt:locale_refcounting.obj
 0004:00001044       $pdata$__acrt_update_thread_locale_data 000000018010e044     libucrt:locale_refcounting.obj
 0004:00001050       $pdata$_updatetlocinfoEx_nolock 000000018010e050     libucrt:locale_refcounting.obj
 0004:0000105c       $pdata$__acrt_locale_free_monetary 000000018010e05c     libucrt:initmon.obj
 0004:00001068       $pdata$__acrt_locale_free_numeric 000000018010e068     libucrt:initnum.obj
 0004:00001074       $pdata$?free_crt_array_internal@@YAXQEAPEBX_K@Z 000000018010e074     libucrt:inittime.obj
 0004:00001080       $pdata$__acrt_locale_free_time 000000018010e080     libucrt:inittime.obj
 0004:0000108c       $pdata$__acrt_GetStringTypeA 000000018010e08c     libucrt:getstringtypea.obj
 0004:00001098       $pdata$strncpy_s           000000018010e098     libucrt:strncpy_s.obj
 0004:000010a4       $pdata$fallbackMethod      000000018010e0a4     libucrt:strpbrk.obj
 0004:000010b0       $pdata$strpbrk             000000018010e0b0     libucrt:strpbrk.obj
 0004:000010bc       $pdata$_mbsdec_l           000000018010e0bc     libucrt:mbsdec.obj
 0004:000010c8       $pdata$?__acrt_LCMapStringA_stat@@YAHPEAU__crt_locale_pointers@@PEB_WKPEBDHPEADHHH@Z 000000018010e0c8     libucrt:lcmapstringa.obj
 0004:000010d4       $pdata$__acrt_LCMapStringA 000000018010e0d4     libucrt:lcmapstringa.obj
 0004:000010e0       $pdata$?initialize_multibyte@@YAHXZ 000000018010e0e0     libucrt:multibyte_initializer.obj
 0004:000010ec       $pdata$_msize_base         000000018010e0ec     libucrt:msize.obj
 0004:000010f8       $pdata$_realloc_base       000000018010e0f8     libucrt:realloc_base.obj
 0004:00001104       $pdata$__acrt_DownlevelLocaleNameToLCID 000000018010e104     libucrt:lcidtoname_downlevel.obj
 0004:00001110       $pdata$__acrt_lowio_create_handle_array 000000018010e110     libucrt:osfinfo.obj
 0004:0000111c       $pdata$__acrt_lowio_destroy_handle_array 000000018010e11c     libucrt:osfinfo.obj
 0004:00001128       $pdata$__acrt_lowio_ensure_fh_exists 000000018010e128     libucrt:osfinfo.obj
 0004:00001134       $pdata$_free_osfhnd        000000018010e134     libucrt:osfinfo.obj
 0004:00001140       $pdata$_get_osfhandle      000000018010e140     libucrt:osfinfo.obj
 0004:0000114c       $pdata$??$?RV<lambda_a37b2b86f63e897a80ea819b0eb08c01>@@AEAV<lambda_38ce7e780aa69e748d6df282ebc68efe>@@V<lambda_99fb1378e971ab6e7edea83e3a7a83a2>@@@?$__crt_seh_guarded_call@H@@QEAAH$$QEAV<lambda_a37b2b86f63e897a80ea819b0eb08c01>@@AEAV<lambda_38ce7e780aa69e748d6df282ebc68efe>@@$$QEAV<lambda_99fb1378e971ab6e7edea83e3a7a83a2>@@@Z 000000018010e14c     libucrt:commit.obj
 0004:00001158       $pdata$_commit             000000018010e158     libucrt:commit.obj
 0004:00001164       $pdata$?write_double_translated_ansi_nolock@@YA?AUwrite_result@?A0x17268360@@HQEBDI@Z 000000018010e164     libucrt:write.obj
 0004:00001170       $pdata$?write_text_ansi_nolock@@YA?AUwrite_result@?A0x17268360@@HQEBDI@Z 000000018010e170     libucrt:write.obj
 0004:0000117c       $pdata$?write_text_utf16le_nolock@@YA?AUwrite_result@?A0x17268360@@HQEBDI@Z 000000018010e17c     libucrt:write.obj
 0004:00001188       $pdata$?write_text_utf8_nolock@@YA?AUwrite_result@?A0x17268360@@HQEBDI@Z 000000018010e188     libucrt:write.obj
 0004:00001194       $pdata$_write              000000018010e194     libucrt:write.obj
 0004:000011a0       $pdata$_write_nolock       000000018010e1a0     libucrt:write.obj
 0004:000011ac       $pdata$_fcloseall          000000018010e1ac     libucrt:closeall.obj
 0004:000011b8       $pdata$__acrt_stdio_free_buffer_nolock 000000018010e1b8     libucrt:_freebuf.obj
 0004:000011c4       $pdata$_isatty             000000018010e1c4     libucrt:isatty.obj
 0004:000011d0       $pdata$_isleadbyte_l       000000018010e1d0     libucrt:_wctype.obj
 0004:000011dc       $pdata$?__mbrtowc_utf8@__crt_mbstring@@YA_KPEA_WPEBD_KPEAU_Mbstatet@@@Z 000000018010e1dc     libucrt:mbrtowc.obj
 0004:000011e8       $pdata$?__mbsrtowcs_utf8@__crt_mbstring@@YA_KPEA_WPEAPEBD_KPEAU_Mbstatet@@@Z 000000018010e1e8     libucrt:mbrtowc.obj
 0004:000011f4       $pdata$??$common_lseek_nolock@_J@@YA_JH_JH@Z 000000018010e1f4     libucrt:lseek.obj
 0004:00001200       $pdata$_putwch_nolock      000000018010e200     libucrt:putwch.obj
 0004:0000120c       $pdata$_fclose_nolock      000000018010e20c     libucrt:fclose.obj
 0004:00001218       $pdata$fclose              000000018010e218     libucrt:fclose.obj
 0004:00001224       $pdata$?__mbrtoc32_utf8@__crt_mbstring@@YA_KPEA_UPEBD_KPEAU_Mbstatet@@@Z 000000018010e224     libucrt:mbrtoc32.obj
 0004:0000123c       $pdata$__dcrt_lowio_ensure_console_output_initialized 000000018010e23c     libucrt:initcon.obj
 0004:00001248       $pdata$__dcrt_terminate_console_output 000000018010e248     libucrt:initcon.obj
 0004:00001254       $pdata$__dcrt_write_console 000000018010e254     libucrt:initcon.obj
 0004:00001260       $pdata$??$?RV<lambda_751a882b2c74d4b022dec766aa51a29a>@@AEAV<lambda_628dfdc04ba53c8bfc02c9951375f3f5>@@V<lambda_f6c7be5f7998530c34de24c7437d6b54>@@@?$__crt_seh_guarded_call@H@@QEAAH$$QEAV<lambda_751a882b2c74d4b022dec766aa51a29a>@@AEAV<lambda_628dfdc04ba53c8bfc02c9951375f3f5>@@$$QEAV<lambda_f6c7be5f7998530c34de24c7437d6b54>@@@Z 000000018010e260     libucrt:close.obj
 0004:0000126c       $pdata$_close              000000018010e26c     libucrt:close.obj
 0004:00001278       $pdata$_close_nolock       000000018010e278     libucrt:close.obj
 0004:00001284       $pdata$_call_matherr       000000018010e284     libucrt:libm_error.obj
 0004:00001290       $pdata$_exception_enabled  000000018010e290     libucrt:libm_error.obj
 0004:0000129c       $pdata$_handle_error       000000018010e29c     libucrt:libm_error.obj
 0004:000012a8       $pdata$__acrt_initialize_fma3 000000018010e2a8     libucrt:fma3_available.obj
 0004:000012b4       $pdata$_log10_special      000000018010e2b4     libucrt:log_special.obj
 0004:000012c0       $pdata$_log_special_common 000000018010e2c0     libucrt:log_special.obj
 0004:000012d8       $pdata$_raise_exc          000000018010e2d8     libucrt:fpexcept.obj
 0004:000012e4       $pdata$_raise_exc_ex       000000018010e2e4     libucrt:fpexcept.obj
 0004:000012f0       $pdata$_set_errno_from_matherr 000000018010e2f0     libucrt:fpexcept.obj
 0004:000012fc       $pdata$_clrfp              000000018010e2fc     libucrt:fpctrl.obj
 0004:00001308       $pdata$_ctrlfp             000000018010e308     libucrt:fpctrl.obj
 0004:00001314       $pdata$_set_statfp         000000018010e314     libucrt:fpctrl.obj
 0004:00001320       $pdata$_statfp             000000018010e320     libucrt:fpctrl.obj
 0004:0000132c       $pdata$?DloadAcquireSectionWriteAccess@@YAXXZ 000000018010e32c     DelayImp:delayhlp.obj
 0004:00001338       $pdata$?DloadGetSRWLockFunctionPointers@@YAEXZ 000000018010e338     DelayImp:delayhlp.obj
 0004:00001344       $pdata$?DloadMakePermanentImageCommit@@YAXPEAX_K@Z 000000018010e344     DelayImp:delayhlp.obj
 0004:00001350       $pdata$?DloadObtainSection@@YAPEAXPEAK0@Z 000000018010e350     DelayImp:delayhlp.obj
 0004:0000135c       $pdata$?DloadProtectSection@@YAXKPEAK@Z 000000018010e35c     DelayImp:delayhlp.obj
 0004:00001368       $pdata$?DloadReleaseSectionWriteAccess@@YAXXZ 000000018010e368     DelayImp:delayhlp.obj
 0004:00001374       $pdata$__delayLoadHelper2  000000018010e374     DelayImp:delayhlp.obj
 0004:00001380       $pdata$_IsNonwritableInCurrentImage 000000018010e380     LIBCMT:pesect.obj
 0004:0000138c       $pdata$__GSHandlerCheck    000000018010e38c     LIBCMT:gshandler.obj
 0004:00001398       $pdata$__GSHandlerCheckCommon 000000018010e398     LIBCMT:gshandler.obj
 0004:000013c8       $pdata$?fin$0@?0??dllmain_crt_process_attach@@YAHQEAUHINSTANCE__@@QEAX@Z@4HA 000000018010e3c8     LIBCMT:dll_dllmain.obj
 0004:000013d4       $pdata$?fin$0@?0??dllmain_crt_process_detach@@YAH_N@Z@4HA 000000018010e3d4     LIBCMT:dll_dllmain.obj
 0004:000013e0       $pdata$?fin$1@?0??dllmain_crt_process_detach@@YAH_N@Z@4HA 000000018010e3e0     LIBCMT:dll_dllmain.obj
 0004:000013ec       $pdata$?filt$0@?0??dllmain_dispatch@@YAHQEAUHINSTANCE__@@KQEAX@Z@4HA 000000018010e3ec     LIBCMT:dll_dllmain.obj
 0004:000013f8       $pdata$__scrt_is_nonwritable_in_current_image$filt$0 000000018010e3f8     LIBCMT:utility.obj
 0004:00001404       $pdata$__DestructExceptionObject$filt$0 000000018010e404     libvcruntime:ehhelpers.obj
 0004:00001410       $pdata$?fin$0@?0???$?RV<lambda_0ae27a3a962d80f24befdcbee591983d>@@AEAV<lambda_8d0ee55de4b1038c4002e0adecdf1839>@@V<lambda_dc504788e8f1664fe9b84e20bfb512f2>@@@?$__crt_seh_guarded_call@X@@QEAAX$$QEAV<lambda_0ae27a3a962d80f24befdcbee591983d>@@AEAV<lambda_8d0ee55de4b1038c4002e0adecdf1839>@@$$QEAV<lambda_dc504788e8f1664fe9b84e20bfb512f2>@@@Z@4HA 000000018010e410     libucrt:per_thread_data.obj
 0004:00001410       $pdata$?fin$0@?0???$?RV<lambda_2d41944a1d46af3157314b8a01080d33>@@AEAV<lambda_8f455de75cd7d7f24b4096f044d8b9e6>@@V<lambda_aa500f224e6afead328df44964fe2772>@@@?$__crt_seh_guarded_call@X@@QEAAX$$QEAV<lambda_2d41944a1d46af3157314b8a01080d33>@@AEAV<lambda_8f455de75cd7d7f24b4096f044d8b9e6>@@$$QEAV<lambda_aa500f224e6afead328df44964fe2772>@@@Z@4HA 000000018010e410     libucrt:per_thread_data.obj
 0004:00001410       $pdata$?fin$0@?0???$?RV<lambda_aa87e3671a710a21b5dc78c0bdf72e11>@@AEAV<lambda_92619d2358a28f41a33ba319515a20b9>@@V<lambda_6992ecaafeb10aed2b74cb1fae11a551>@@@?$__crt_seh_guarded_call@X@@QEAAX$$QEAV<lambda_aa87e3671a710a21b5dc78c0bdf72e11>@@AEAV<lambda_92619d2358a28f41a33ba319515a20b9>@@$$QEAV<lambda_6992ecaafeb10aed2b74cb1fae11a551>@@@Z@4HA 000000018010e410     libucrt:per_thread_data.obj
 0004:00001410       $pdata$?fin$0@?0???$?RV<lambda_f2e299630e499de9f9a165e60fcd3db5>@@AEAV<lambda_2ae9d31cdba2644fcbeaf08da7c24588>@@V<lambda_40d01ff24d0e7b3814fdbdcee8eab3c7>@@@?$__crt_seh_guarded_call@X@@QEAAX$$QEAV<lambda_f2e299630e499de9f9a165e60fcd3db5>@@AEAV<lambda_2ae9d31cdba2644fcbeaf08da7c24588>@@$$QEAV<lambda_40d01ff24d0e7b3814fdbdcee8eab3c7>@@@Z@4HA 000000018010e410     libucrt:per_thread_data.obj
 0004:00001410       $pdata$?fin$0@?0???$?RV<lambda_efdfa57d1f175319df784efa44bb7b81>@@AEAV<lambda_5f0a4c1567f8adc6734073e5d1e1b35c>@@V<lambda_2e8a7d3640ea6ccb4c2413664c2db6fd>@@@?$__crt_seh_guarded_call@X@@QEAAX$$QEAV<lambda_efdfa57d1f175319df784efa44bb7b81>@@AEAV<lambda_5f0a4c1567f8adc6734073e5d1e1b35c>@@$$QEAV<lambda_2e8a7d3640ea6ccb4c2413664c2db6fd>@@@Z@4HA 000000018010e410     libucrt:mbctype.obj
 0004:00001410       $pdata$?fin$0@?0???$?RV<lambda_450d765d439847d4c735a33c368b5fc0>@@AEAV<lambda_44731a7d0e6d81c3e6aa82d741081786>@@V<lambda_601a2a7da3b7a96e9554ac7215c4b07c>@@@?$__crt_seh_guarded_call@P6AXH@Z@@QEAAP6AXH@Z$$QEAV<lambda_450d765d439847d4c735a33c368b5fc0>@@AEAV<lambda_44731a7d0e6d81c3e6aa82d741081786>@@$$QEAV<lambda_601a2a7da3b7a96e9554ac7215c4b07c>@@@Z@4HA 000000018010e410     libucrt:signal.obj
 0004:00001410       $pdata$?fin$0@?0???$?RV<lambda_d80eeec6fff315bfe5c115232f3240e3>@@AEAV<lambda_6e4b09c48022b2350581041d5f6b0c4c>@@V<lambda_2358e3775559c9db80273638284d5e45>@@@?$__crt_seh_guarded_call@X@@QEAAX$$QEAV<lambda_d80eeec6fff315bfe5c115232f3240e3>@@AEAV<lambda_6e4b09c48022b2350581041d5f6b0c4c>@@$$QEAV<lambda_2358e3775559c9db80273638284d5e45>@@@Z@4HA 000000018010e410     libucrt:exit.obj
 0004:00001410       $pdata$?fin$0@?0???$?RV<lambda_7777bce6b2f8c936911f934f8298dc43>@@AEAV<lambda_f03950bc5685219e0bcd2087efbe011e>@@V<lambda_3883c3dff614d5e0c5f61bb1ac94921c>@@@?$__crt_seh_guarded_call@H@@QEAAH$$QEAV<lambda_7777bce6b2f8c936911f934f8298dc43>@@AEAV<lambda_f03950bc5685219e0bcd2087efbe011e>@@$$QEAV<lambda_3883c3dff614d5e0c5f61bb1ac94921c>@@@Z@4HA 000000018010e410     libucrt:onexit.obj
 0004:0000141c       $pdata$?filt$0@?0???R<lambda_6e4b09c48022b2350581041d5f6b0c4c>@@QEBA@XZ@4HA 000000018010e41c     libucrt:exit.obj
 0004:00001428       $pdata$raise$fin$0         000000018010e428     libucrt:signal.obj
 0004:00001434       $pdata$?fin$0@?0???$?RV<lambda_410d79af7f07d98d83a3f525b3859a53>@@AEAV<lambda_3e16ef9562a7dcce91392c22ab16ea36>@@V<lambda_38119f0e861e05405d8a144b9b982f0a>@@@?$__crt_seh_guarded_call@X@@QEAAX$$QEAV<lambda_410d79af7f07d98d83a3f525b3859a53>@@AEAV<lambda_3e16ef9562a7dcce91392c22ab16ea36>@@$$QEAV<lambda_38119f0e861e05405d8a144b9b982f0a>@@@Z@4HA 000000018010e434     libucrt:wsetlocale.obj
 0004:00001440       $pdata$?fin$0@?0??update_thread_multibyte_data_internal@@YAPEAU__crt_multibyte_data@@QEAU__acrt_ptd@@QEAPEAU1@@Z@4HA 000000018010e440     libucrt:mbctype.obj
 0004:0000144c       $pdata$__acrt_initialize_lowio$fin$0 000000018010e44c     libucrt:ioinit.obj
 0004:0000144c       $pdata$__acrt_lowio_ensure_fh_exists$fin$0 000000018010e44c     libucrt:osfinfo.obj
 0004:00001458       $pdata$_query_new_handler$fin$0 000000018010e458     libucrt:new_handler.obj
 0004:00001464       $pdata$?fin$0@?0???$?RV<lambda_842d9ff0dc9ef11c61343bbaebe7f885>@@AEAV<lambda_c5860995281e5c4ce005b3de8f5874ee>@@V<lambda_d90129c13df834fdcbf8d2b88dafcf2d>@@@?$__crt_seh_guarded_call@X@@QEAAX$$QEAV<lambda_842d9ff0dc9ef11c61343bbaebe7f885>@@AEAV<lambda_c5860995281e5c4ce005b3de8f5874ee>@@$$QEAV<lambda_d90129c13df834fdcbf8d2b88dafcf2d>@@@Z@4HA 000000018010e464     libucrt:fflush.obj
 0004:00001470       $pdata$?fin$0@?0???$?RV<lambda_886d6c58226a84441f68b9f2b8217b83>@@AEAV<lambda_ab61a845afdef5b7c387490eaf3616ee>@@V<lambda_f7f22ab5edc0698d5f6905b0d3f44752>@@@?$__crt_seh_guarded_call@X@@QEAAX$$QEAV<lambda_886d6c58226a84441f68b9f2b8217b83>@@AEAV<lambda_ab61a845afdef5b7c387490eaf3616ee>@@$$QEAV<lambda_f7f22ab5edc0698d5f6905b0d3f44752>@@@Z@4HA 000000018010e470     libucrt:fflush.obj
 0004:0000147c       $pdata$__acrt_update_thread_locale_data$fin$0 000000018010e47c     libucrt:locale_refcounting.obj
 0004:00001488       $pdata$?fin$0@?0???$?RV<lambda_751a882b2c74d4b022dec766aa51a29a>@@AEAV<lambda_628dfdc04ba53c8bfc02c9951375f3f5>@@V<lambda_f6c7be5f7998530c34de24c7437d6b54>@@@?$__crt_seh_guarded_call@H@@QEAAH$$QEAV<lambda_751a882b2c74d4b022dec766aa51a29a>@@AEAV<lambda_628dfdc04ba53c8bfc02c9951375f3f5>@@$$QEAV<lambda_f6c7be5f7998530c34de24c7437d6b54>@@@Z@4HA 000000018010e488     libucrt:close.obj
 0004:00001488       $pdata$?fin$0@?0???$?RV<lambda_a37b2b86f63e897a80ea819b0eb08c01>@@AEAV<lambda_38ce7e780aa69e748d6df282ebc68efe>@@V<lambda_99fb1378e971ab6e7edea83e3a7a83a2>@@@?$__crt_seh_guarded_call@H@@QEAAH$$QEAV<lambda_a37b2b86f63e897a80ea819b0eb08c01>@@AEAV<lambda_38ce7e780aa69e748d6df282ebc68efe>@@$$QEAV<lambda_99fb1378e971ab6e7edea83e3a7a83a2>@@@Z@4HA 000000018010e488     libucrt:commit.obj
 0004:00001494       $pdata$_write$fin$0        000000018010e494     libucrt:write.obj
 0004:000014a0       $pdata$_fcloseall$fin$0    000000018010e4a0     libucrt:closeall.obj
 0004:000014ac       $pdata$fclose$fin$0        000000018010e4ac     libucrt:fclose.obj
 0004:000014b8       $pdata$_ctrlfp$filt$0      000000018010e4b8     libucrt:fpctrl.obj
 0004:000014c4       $pdata$_IsNonwritableInCurrentImage$filt$0 000000018010e4c4     LIBCMT:pesect.obj
 0005:00000000       MsetTab                    000000018010f000     libvcruntime:memset.obj
 0005:00000050       MoveSmall                  000000018010f050     libvcruntime:memcpy.obj
 0006:00000060       $R000000                   0000000180110060     * linker generated manifest res *

 Exports

  ordinal    name

        1    _register_libiconv_
